
V2X_Sequencer.elf:     file format elf32-avr

Sections:
Idx Name          Size      VMA       LMA       File off  Algn
  0 .text         00001232  00000000  00000000  00000074  2**1
                  CONTENTS, ALLOC, LOAD, READONLY, CODE
  1 .data         00000000  00802000  00802000  000012a6  2**0
                  CONTENTS, ALLOC, LOAD, DATA
  2 .bss          0000001d  00802000  00802000  000012a6  2**0
                  ALLOC
  3 .comment      00000030  00000000  00000000  000012a6  2**0
                  CONTENTS, READONLY
  4 .note.gnu.avr.deviceinfo 00000040  00000000  00000000  000012d8  2**2
                  CONTENTS, READONLY

Disassembly of section .text:

00000000 <__vectors>:
       0:	fd c0       	rjmp	.+506    	; 0x1fc <__ctors_end>
       2:	00 00       	nop
       4:	1f c1       	rjmp	.+574    	; 0x244 <__bad_interrupt>
       6:	00 00       	nop
       8:	1d c1       	rjmp	.+570    	; 0x244 <__bad_interrupt>
       a:	00 00       	nop
       c:	1b c1       	rjmp	.+566    	; 0x244 <__bad_interrupt>
       e:	00 00       	nop
      10:	19 c1       	rjmp	.+562    	; 0x244 <__bad_interrupt>
      12:	00 00       	nop
      14:	17 c1       	rjmp	.+558    	; 0x244 <__bad_interrupt>
      16:	00 00       	nop
      18:	b9 c5       	rjmp	.+2930   	; 0xb8c <__vector_6>
      1a:	00 00       	nop
      1c:	1f c6       	rjmp	.+3134   	; 0xc5c <__vector_7>
      1e:	00 00       	nop
      20:	8b c6       	rjmp	.+3350   	; 0xd38 <__vector_8>
      22:	00 00       	nop
      24:	f4 c6       	rjmp	.+3560   	; 0xe0e <__vector_9>
      26:	00 00       	nop
      28:	51 c7       	rjmp	.+3746   	; 0xecc <__vector_10>
      2a:	00 00       	nop
      2c:	72 c7       	rjmp	.+3812   	; 0xf12 <__vector_11>
      2e:	00 00       	nop
      30:	09 c1       	rjmp	.+530    	; 0x244 <__bad_interrupt>
      32:	00 00       	nop
      34:	08 c1       	rjmp	.+528    	; 0x246 <__vector_13>
      36:	00 00       	nop
      38:	05 c1       	rjmp	.+522    	; 0x244 <__bad_interrupt>
      3a:	00 00       	nop
      3c:	03 c1       	rjmp	.+518    	; 0x244 <__bad_interrupt>
      3e:	00 00       	nop
      40:	01 c1       	rjmp	.+514    	; 0x244 <__bad_interrupt>
      42:	00 00       	nop
      44:	ff c0       	rjmp	.+510    	; 0x244 <__bad_interrupt>
      46:	00 00       	nop
      48:	fd c0       	rjmp	.+506    	; 0x244 <__bad_interrupt>
      4a:	00 00       	nop
      4c:	fb c0       	rjmp	.+502    	; 0x244 <__bad_interrupt>
      4e:	00 00       	nop
      50:	f9 c0       	rjmp	.+498    	; 0x244 <__bad_interrupt>
      52:	00 00       	nop
      54:	f7 c0       	rjmp	.+494    	; 0x244 <__bad_interrupt>
      56:	00 00       	nop
      58:	f5 c0       	rjmp	.+490    	; 0x244 <__bad_interrupt>
      5a:	00 00       	nop
      5c:	f3 c0       	rjmp	.+486    	; 0x244 <__bad_interrupt>
      5e:	00 00       	nop
      60:	f1 c0       	rjmp	.+482    	; 0x244 <__bad_interrupt>
      62:	00 00       	nop
      64:	ef c0       	rjmp	.+478    	; 0x244 <__bad_interrupt>
      66:	00 00       	nop
      68:	ed c0       	rjmp	.+474    	; 0x244 <__bad_interrupt>
      6a:	00 00       	nop
      6c:	eb c0       	rjmp	.+470    	; 0x244 <__bad_interrupt>
      6e:	00 00       	nop
      70:	e9 c0       	rjmp	.+466    	; 0x244 <__bad_interrupt>
      72:	00 00       	nop
      74:	e7 c0       	rjmp	.+462    	; 0x244 <__bad_interrupt>
      76:	00 00       	nop
      78:	e5 c0       	rjmp	.+458    	; 0x244 <__bad_interrupt>
      7a:	00 00       	nop
      7c:	e3 c0       	rjmp	.+454    	; 0x244 <__bad_interrupt>
      7e:	00 00       	nop
      80:	e1 c0       	rjmp	.+450    	; 0x244 <__bad_interrupt>
      82:	00 00       	nop
      84:	df c0       	rjmp	.+446    	; 0x244 <__bad_interrupt>
      86:	00 00       	nop
      88:	dd c0       	rjmp	.+442    	; 0x244 <__bad_interrupt>
      8a:	00 00       	nop
      8c:	db c0       	rjmp	.+438    	; 0x244 <__bad_interrupt>
      8e:	00 00       	nop
      90:	d9 c0       	rjmp	.+434    	; 0x244 <__bad_interrupt>
      92:	00 00       	nop
      94:	d7 c0       	rjmp	.+430    	; 0x244 <__bad_interrupt>
      96:	00 00       	nop
      98:	d5 c0       	rjmp	.+426    	; 0x244 <__bad_interrupt>
      9a:	00 00       	nop
      9c:	d3 c0       	rjmp	.+422    	; 0x244 <__bad_interrupt>
      9e:	00 00       	nop
      a0:	d1 c0       	rjmp	.+418    	; 0x244 <__bad_interrupt>
      a2:	00 00       	nop
      a4:	cf c0       	rjmp	.+414    	; 0x244 <__bad_interrupt>
      a6:	00 00       	nop
      a8:	cd c0       	rjmp	.+410    	; 0x244 <__bad_interrupt>
      aa:	00 00       	nop
      ac:	cb c0       	rjmp	.+406    	; 0x244 <__bad_interrupt>
      ae:	00 00       	nop
      b0:	c9 c0       	rjmp	.+402    	; 0x244 <__bad_interrupt>
      b2:	00 00       	nop
      b4:	c7 c0       	rjmp	.+398    	; 0x244 <__bad_interrupt>
      b6:	00 00       	nop
      b8:	9a c1       	rjmp	.+820    	; 0x3ee <__vector_46>
      ba:	00 00       	nop
      bc:	c3 c0       	rjmp	.+390    	; 0x244 <__bad_interrupt>
      be:	00 00       	nop
      c0:	c1 c0       	rjmp	.+386    	; 0x244 <__bad_interrupt>
      c2:	00 00       	nop
      c4:	bf c0       	rjmp	.+382    	; 0x244 <__bad_interrupt>
      c6:	00 00       	nop
      c8:	bd c0       	rjmp	.+378    	; 0x244 <__bad_interrupt>
      ca:	00 00       	nop
      cc:	bb c0       	rjmp	.+374    	; 0x244 <__bad_interrupt>
      ce:	00 00       	nop
      d0:	b9 c0       	rjmp	.+370    	; 0x244 <__bad_interrupt>
      d2:	00 00       	nop
      d4:	b7 c0       	rjmp	.+366    	; 0x244 <__bad_interrupt>
      d6:	00 00       	nop
      d8:	b5 c0       	rjmp	.+362    	; 0x244 <__bad_interrupt>
      da:	00 00       	nop
      dc:	b3 c0       	rjmp	.+358    	; 0x244 <__bad_interrupt>
      de:	00 00       	nop
      e0:	b1 c0       	rjmp	.+354    	; 0x244 <__bad_interrupt>
      e2:	00 00       	nop
      e4:	af c0       	rjmp	.+350    	; 0x244 <__bad_interrupt>
      e6:	00 00       	nop
      e8:	ad c0       	rjmp	.+346    	; 0x244 <__bad_interrupt>
      ea:	00 00       	nop
      ec:	ab c0       	rjmp	.+342    	; 0x244 <__bad_interrupt>
      ee:	00 00       	nop
      f0:	a9 c0       	rjmp	.+338    	; 0x244 <__bad_interrupt>
      f2:	00 00       	nop
      f4:	a7 c0       	rjmp	.+334    	; 0x244 <__bad_interrupt>
      f6:	00 00       	nop
      f8:	a5 c0       	rjmp	.+330    	; 0x244 <__bad_interrupt>
      fa:	00 00       	nop
      fc:	a3 c0       	rjmp	.+326    	; 0x244 <__bad_interrupt>
      fe:	00 00       	nop
     100:	a1 c0       	rjmp	.+322    	; 0x244 <__bad_interrupt>
     102:	00 00       	nop
     104:	9f c0       	rjmp	.+318    	; 0x244 <__bad_interrupt>
     106:	00 00       	nop
     108:	9d c0       	rjmp	.+314    	; 0x244 <__bad_interrupt>
     10a:	00 00       	nop
     10c:	9b c0       	rjmp	.+310    	; 0x244 <__bad_interrupt>
     10e:	00 00       	nop
     110:	99 c0       	rjmp	.+306    	; 0x244 <__bad_interrupt>
     112:	00 00       	nop
     114:	97 c0       	rjmp	.+302    	; 0x244 <__bad_interrupt>
     116:	00 00       	nop
     118:	95 c0       	rjmp	.+298    	; 0x244 <__bad_interrupt>
     11a:	00 00       	nop
     11c:	93 c0       	rjmp	.+294    	; 0x244 <__bad_interrupt>
     11e:	00 00       	nop
     120:	91 c0       	rjmp	.+290    	; 0x244 <__bad_interrupt>
     122:	00 00       	nop
     124:	8f c0       	rjmp	.+286    	; 0x244 <__bad_interrupt>
     126:	00 00       	nop
     128:	8d c0       	rjmp	.+282    	; 0x244 <__bad_interrupt>
     12a:	00 00       	nop
     12c:	8b c0       	rjmp	.+278    	; 0x244 <__bad_interrupt>
     12e:	00 00       	nop
     130:	89 c0       	rjmp	.+274    	; 0x244 <__bad_interrupt>
     132:	00 00       	nop
     134:	87 c0       	rjmp	.+270    	; 0x244 <__bad_interrupt>
     136:	00 00       	nop
     138:	85 c0       	rjmp	.+266    	; 0x244 <__bad_interrupt>
     13a:	00 00       	nop
     13c:	83 c0       	rjmp	.+262    	; 0x244 <__bad_interrupt>
     13e:	00 00       	nop
     140:	81 c0       	rjmp	.+258    	; 0x244 <__bad_interrupt>
     142:	00 00       	nop
     144:	7f c0       	rjmp	.+254    	; 0x244 <__bad_interrupt>
     146:	00 00       	nop
     148:	7d c0       	rjmp	.+250    	; 0x244 <__bad_interrupt>
     14a:	00 00       	nop
     14c:	7b c0       	rjmp	.+246    	; 0x244 <__bad_interrupt>
     14e:	00 00       	nop
     150:	79 c0       	rjmp	.+242    	; 0x244 <__bad_interrupt>
     152:	00 00       	nop
     154:	77 c0       	rjmp	.+238    	; 0x244 <__bad_interrupt>
     156:	00 00       	nop
     158:	75 c0       	rjmp	.+234    	; 0x244 <__bad_interrupt>
     15a:	00 00       	nop
     15c:	73 c0       	rjmp	.+230    	; 0x244 <__bad_interrupt>
     15e:	00 00       	nop
     160:	71 c0       	rjmp	.+226    	; 0x244 <__bad_interrupt>
     162:	00 00       	nop
     164:	6f c0       	rjmp	.+222    	; 0x244 <__bad_interrupt>
     166:	00 00       	nop
     168:	6d c0       	rjmp	.+218    	; 0x244 <__bad_interrupt>
     16a:	00 00       	nop
     16c:	6b c0       	rjmp	.+214    	; 0x244 <__bad_interrupt>
     16e:	00 00       	nop
     170:	69 c0       	rjmp	.+210    	; 0x244 <__bad_interrupt>
     172:	00 00       	nop
     174:	67 c0       	rjmp	.+206    	; 0x244 <__bad_interrupt>
     176:	00 00       	nop
     178:	65 c0       	rjmp	.+202    	; 0x244 <__bad_interrupt>
     17a:	00 00       	nop
     17c:	63 c0       	rjmp	.+198    	; 0x244 <__bad_interrupt>
     17e:	00 00       	nop
     180:	61 c0       	rjmp	.+194    	; 0x244 <__bad_interrupt>
     182:	00 00       	nop
     184:	5f c0       	rjmp	.+190    	; 0x244 <__bad_interrupt>
     186:	00 00       	nop
     188:	5d c0       	rjmp	.+186    	; 0x244 <__bad_interrupt>
     18a:	00 00       	nop
     18c:	5b c0       	rjmp	.+182    	; 0x244 <__bad_interrupt>
     18e:	00 00       	nop
     190:	59 c0       	rjmp	.+178    	; 0x244 <__bad_interrupt>
     192:	00 00       	nop
     194:	57 c0       	rjmp	.+174    	; 0x244 <__bad_interrupt>
     196:	00 00       	nop
     198:	55 c0       	rjmp	.+170    	; 0x244 <__bad_interrupt>
     19a:	00 00       	nop
     19c:	53 c0       	rjmp	.+166    	; 0x244 <__bad_interrupt>
     19e:	00 00       	nop
     1a0:	51 c0       	rjmp	.+162    	; 0x244 <__bad_interrupt>
     1a2:	00 00       	nop
     1a4:	4f c0       	rjmp	.+158    	; 0x244 <__bad_interrupt>
     1a6:	00 00       	nop
     1a8:	4d c0       	rjmp	.+154    	; 0x244 <__bad_interrupt>
     1aa:	00 00       	nop
     1ac:	4b c0       	rjmp	.+150    	; 0x244 <__bad_interrupt>
     1ae:	00 00       	nop
     1b0:	49 c0       	rjmp	.+146    	; 0x244 <__bad_interrupt>
     1b2:	00 00       	nop
     1b4:	47 c0       	rjmp	.+142    	; 0x244 <__bad_interrupt>
     1b6:	00 00       	nop
     1b8:	45 c0       	rjmp	.+138    	; 0x244 <__bad_interrupt>
     1ba:	00 00       	nop
     1bc:	43 c0       	rjmp	.+134    	; 0x244 <__bad_interrupt>
     1be:	00 00       	nop
     1c0:	41 c0       	rjmp	.+130    	; 0x244 <__bad_interrupt>
     1c2:	00 00       	nop
     1c4:	3f c0       	rjmp	.+126    	; 0x244 <__bad_interrupt>
     1c6:	00 00       	nop
     1c8:	3d c0       	rjmp	.+122    	; 0x244 <__bad_interrupt>
     1ca:	00 00       	nop
     1cc:	3b c0       	rjmp	.+118    	; 0x244 <__bad_interrupt>
     1ce:	00 00       	nop
     1d0:	39 c0       	rjmp	.+114    	; 0x244 <__bad_interrupt>
     1d2:	00 00       	nop
     1d4:	37 c0       	rjmp	.+110    	; 0x244 <__bad_interrupt>
     1d6:	00 00       	nop
     1d8:	35 c0       	rjmp	.+106    	; 0x244 <__bad_interrupt>
     1da:	00 00       	nop
     1dc:	33 c0       	rjmp	.+102    	; 0x244 <__bad_interrupt>
     1de:	00 00       	nop
     1e0:	31 c0       	rjmp	.+98     	; 0x244 <__bad_interrupt>
     1e2:	00 00       	nop
     1e4:	2f c0       	rjmp	.+94     	; 0x244 <__bad_interrupt>
     1e6:	00 00       	nop
     1e8:	2d c0       	rjmp	.+90     	; 0x244 <__bad_interrupt>
     1ea:	00 00       	nop
     1ec:	2b c0       	rjmp	.+86     	; 0x244 <__bad_interrupt>
     1ee:	00 00       	nop
     1f0:	29 c0       	rjmp	.+82     	; 0x244 <__bad_interrupt>
     1f2:	00 00       	nop
     1f4:	27 c0       	rjmp	.+78     	; 0x244 <__bad_interrupt>
     1f6:	00 00       	nop
     1f8:	25 c0       	rjmp	.+74     	; 0x244 <__bad_interrupt>
	...

000001fc <__ctors_end>:
     1fc:	11 24       	eor	r1, r1
     1fe:	1f be       	out	0x3f, r1	; 63
     200:	cf ef       	ldi	r28, 0xFF	; 255
     202:	cd bf       	out	0x3d, r28	; 61
     204:	df e3       	ldi	r29, 0x3F	; 63
     206:	de bf       	out	0x3e, r29	; 62
     208:	00 e0       	ldi	r16, 0x00	; 0
     20a:	0c bf       	out	0x3c, r16	; 60
     20c:	18 be       	out	0x38, r1	; 56
     20e:	19 be       	out	0x39, r1	; 57
     210:	1a be       	out	0x3a, r1	; 58
     212:	1b be       	out	0x3b, r1	; 59

00000214 <__do_copy_data>:
     214:	10 e2       	ldi	r17, 0x20	; 32
     216:	a0 e0       	ldi	r26, 0x00	; 0
     218:	b0 e2       	ldi	r27, 0x20	; 32
     21a:	e2 e3       	ldi	r30, 0x32	; 50
     21c:	f2 e1       	ldi	r31, 0x12	; 18
     21e:	00 e0       	ldi	r16, 0x00	; 0
     220:	0b bf       	out	0x3b, r16	; 59
     222:	02 c0       	rjmp	.+4      	; 0x228 <__do_copy_data+0x14>
     224:	07 90       	elpm	r0, Z+
     226:	0d 92       	st	X+, r0
     228:	a0 30       	cpi	r26, 0x00	; 0
     22a:	b1 07       	cpc	r27, r17
     22c:	d9 f7       	brne	.-10     	; 0x224 <__do_copy_data+0x10>
     22e:	1b be       	out	0x3b, r1	; 59

00000230 <__do_clear_bss>:
     230:	20 e2       	ldi	r18, 0x20	; 32
     232:	a0 e0       	ldi	r26, 0x00	; 0
     234:	b0 e2       	ldi	r27, 0x20	; 32
     236:	01 c0       	rjmp	.+2      	; 0x23a <.do_clear_bss_start>

00000238 <.do_clear_bss_loop>:
     238:	1d 92       	st	X+, r1

0000023a <.do_clear_bss_start>:
     23a:	ad 31       	cpi	r26, 0x1D	; 29
     23c:	b2 07       	cpc	r27, r18
     23e:	e1 f7       	brne	.-8      	; 0x238 <.do_clear_bss_loop>
     240:	a2 d7       	rcall	.+3908   	; 0x1186 <main>
     242:	f5 c7       	rjmp	.+4074   	; 0x122e <_exit>

00000244 <__bad_interrupt>:
     244:	dd ce       	rjmp	.-582    	; 0x0 <__vectors>

00000246 <__vector_13>:
     246:	1f 92       	push	r1
     248:	0f 92       	push	r0
     24a:	0f b6       	in	r0, 0x3f	; 63
     24c:	0f 92       	push	r0
     24e:	11 24       	eor	r1, r1
     250:	08 b6       	in	r0, 0x38	; 56
     252:	0f 92       	push	r0
     254:	18 be       	out	0x38, r1	; 56
     256:	09 b6       	in	r0, 0x39	; 57
     258:	0f 92       	push	r0
     25a:	19 be       	out	0x39, r1	; 57
     25c:	0a b6       	in	r0, 0x3a	; 58
     25e:	0f 92       	push	r0
     260:	1a be       	out	0x3a, r1	; 58
     262:	0b b6       	in	r0, 0x3b	; 59
     264:	0f 92       	push	r0
     266:	1b be       	out	0x3b, r1	; 59
     268:	2f 93       	push	r18
     26a:	3f 93       	push	r19
     26c:	4f 93       	push	r20
     26e:	5f 93       	push	r21
     270:	6f 93       	push	r22
     272:	7f 93       	push	r23
     274:	8f 93       	push	r24
     276:	9f 93       	push	r25
     278:	af 93       	push	r26
     27a:	bf 93       	push	r27
     27c:	cf 93       	push	r28
     27e:	df 93       	push	r29
     280:	ef 93       	push	r30
     282:	ff 93       	push	r31
     284:	e0 91 00 20 	lds	r30, 0x2000
     288:	f0 91 01 20 	lds	r31, 0x2001
     28c:	84 81       	ldd	r24, Z+4	; 0x04
     28e:	83 fd       	sbrc	r24, 3
     290:	2b c0       	rjmp	.+86     	; 0x2e8 <__vector_13+0xa2>
     292:	98 2f       	mov	r25, r24
     294:	94 71       	andi	r25, 0x14	; 20
     296:	41 f4       	brne	.+16     	; 0x2a8 <__vector_13+0x62>
     298:	86 fd       	sbrc	r24, 6
     29a:	2e c0       	rjmp	.+92     	; 0x2f8 <__vector_13+0xb2>
     29c:	87 fd       	sbrc	r24, 7
     29e:	5d c0       	rjmp	.+186    	; 0x35a <__vector_13+0x114>
     2a0:	8b ef       	ldi	r24, 0xFB	; 251
     2a2:	80 93 0a 20 	sts	0x200A, r24
     2a6:	05 c0       	rjmp	.+10     	; 0x2b2 <__vector_13+0x6c>
     2a8:	83 e0       	ldi	r24, 0x03	; 3
     2aa:	83 83       	std	Z+3, r24	; 0x03
     2ac:	8f ef       	ldi	r24, 0xFF	; 255
     2ae:	80 93 0a 20 	sts	0x200A, r24
     2b2:	ff 91       	pop	r31
     2b4:	ef 91       	pop	r30
     2b6:	df 91       	pop	r29
     2b8:	cf 91       	pop	r28
     2ba:	bf 91       	pop	r27
     2bc:	af 91       	pop	r26
     2be:	9f 91       	pop	r25
     2c0:	8f 91       	pop	r24
     2c2:	7f 91       	pop	r23
     2c4:	6f 91       	pop	r22
     2c6:	5f 91       	pop	r21
     2c8:	4f 91       	pop	r20
     2ca:	3f 91       	pop	r19
     2cc:	2f 91       	pop	r18
     2ce:	0f 90       	pop	r0
     2d0:	0b be       	out	0x3b, r0	; 59
     2d2:	0f 90       	pop	r0
     2d4:	0a be       	out	0x3a, r0	; 58
     2d6:	0f 90       	pop	r0
     2d8:	09 be       	out	0x39, r0	; 57
     2da:	0f 90       	pop	r0
     2dc:	08 be       	out	0x38, r0	; 56
     2de:	0f 90       	pop	r0
     2e0:	0f be       	out	0x3f, r0	; 63
     2e2:	0f 90       	pop	r0
     2e4:	1f 90       	pop	r1
     2e6:	18 95       	reti
     2e8:	88 60       	ori	r24, 0x08	; 8
     2ea:	84 83       	std	Z+4, r24	; 0x04
     2ec:	83 e0       	ldi	r24, 0x03	; 3
     2ee:	83 83       	std	Z+3, r24	; 0x03
     2f0:	86 ef       	ldi	r24, 0xF6	; 246
     2f2:	80 93 0a 20 	sts	0x200A, r24
     2f6:	dd cf       	rjmp	.-70     	; 0x2b2 <__vector_13+0x6c>
     2f8:	a0 91 02 20 	lds	r26, 0x2002
     2fc:	b0 91 03 20 	lds	r27, 0x2003
     300:	80 91 04 20 	lds	r24, 0x2004
     304:	90 91 05 20 	lds	r25, 0x2005
     308:	14 96       	adiw	r26, 0x04	; 4
     30a:	2d 91       	ld	r18, X+
     30c:	3c 91       	ld	r19, X
     30e:	15 97       	sbiw	r26, 0x05	; 5
     310:	82 17       	cp	r24, r18
     312:	93 07       	cpc	r25, r19
     314:	ac f0       	brlt	.+42     	; 0x340 <__vector_13+0xfa>
     316:	80 91 06 20 	lds	r24, 0x2006
     31a:	90 91 07 20 	lds	r25, 0x2007
     31e:	18 96       	adiw	r26, 0x08	; 8
     320:	2d 91       	ld	r18, X+
     322:	3c 91       	ld	r19, X
     324:	19 97       	sbiw	r26, 0x09	; 9
     326:	82 17       	cp	r24, r18
     328:	93 07       	cpc	r25, r19
     32a:	08 f0       	brcs	.+2      	; 0x32e <__vector_13+0xe8>
     32c:	3f c0       	rjmp	.+126    	; 0x3ac <__vector_13+0x166>
     32e:	20 91 08 20 	lds	r18, 0x2008
     332:	22 23       	and	r18, r18
     334:	09 f4       	brne	.+2      	; 0x338 <__vector_13+0xf2>
     336:	45 c0       	rjmp	.+138    	; 0x3c2 <__vector_13+0x17c>
     338:	86 81       	ldd	r24, Z+6	; 0x06
     33a:	81 60       	ori	r24, 0x01	; 1
     33c:	86 83       	std	Z+6, r24	; 0x06
     33e:	b9 cf       	rjmp	.-142    	; 0x2b2 <__vector_13+0x6c>
     340:	9c 01       	movw	r18, r24
     342:	2f 5f       	subi	r18, 0xFF	; 255
     344:	3f 4f       	sbci	r19, 0xFF	; 255
     346:	20 93 04 20 	sts	0x2004, r18
     34a:	30 93 05 20 	sts	0x2005, r19
     34e:	a8 0f       	add	r26, r24
     350:	b9 1f       	adc	r27, r25
     352:	11 96       	adiw	r26, 0x01	; 1
     354:	8c 91       	ld	r24, X
     356:	87 83       	std	Z+7, r24	; 0x07
     358:	ac cf       	rjmp	.-168    	; 0x2b2 <__vector_13+0x6c>
     35a:	a0 91 02 20 	lds	r26, 0x2002
     35e:	b0 91 03 20 	lds	r27, 0x2003
     362:	80 91 06 20 	lds	r24, 0x2006
     366:	90 91 07 20 	lds	r25, 0x2007
     36a:	18 96       	adiw	r26, 0x08	; 8
     36c:	2d 91       	ld	r18, X+
     36e:	3c 91       	ld	r19, X
     370:	19 97       	sbiw	r26, 0x09	; 9
     372:	82 17       	cp	r24, r18
     374:	93 07       	cpc	r25, r19
     376:	f8 f4       	brcc	.+62     	; 0x3b6 <__vector_13+0x170>
     378:	16 96       	adiw	r26, 0x06	; 6
     37a:	6d 91       	ld	r22, X+
     37c:	7c 91       	ld	r23, X
     37e:	17 97       	sbiw	r26, 0x07	; 7
     380:	9c 01       	movw	r18, r24
     382:	2f 5f       	subi	r18, 0xFF	; 255
     384:	3f 4f       	sbci	r19, 0xFF	; 255
     386:	20 93 06 20 	sts	0x2006, r18
     38a:	30 93 07 20 	sts	0x2007, r19
     38e:	47 81       	ldd	r20, Z+7	; 0x07
     390:	eb 01       	movw	r28, r22
     392:	c8 0f       	add	r28, r24
     394:	d9 1f       	adc	r29, r25
     396:	48 83       	st	Y, r20
     398:	18 96       	adiw	r26, 0x08	; 8
     39a:	8d 91       	ld	r24, X+
     39c:	9c 91       	ld	r25, X
     39e:	19 97       	sbiw	r26, 0x09	; 9
     3a0:	28 17       	cp	r18, r24
     3a2:	39 07       	cpc	r19, r25
     3a4:	f8 f4       	brcc	.+62     	; 0x3e4 <__vector_13+0x19e>
     3a6:	82 e0       	ldi	r24, 0x02	; 2
     3a8:	83 83       	std	Z+3, r24	; 0x03
     3aa:	83 cf       	rjmp	.-250    	; 0x2b2 <__vector_13+0x6c>
     3ac:	83 e0       	ldi	r24, 0x03	; 3
     3ae:	83 83       	std	Z+3, r24	; 0x03
     3b0:	10 92 0a 20 	sts	0x200A, r1
     3b4:	7e cf       	rjmp	.-260    	; 0x2b2 <__vector_13+0x6c>
     3b6:	83 e0       	ldi	r24, 0x03	; 3
     3b8:	83 83       	std	Z+3, r24	; 0x03
     3ba:	89 ef       	ldi	r24, 0xF9	; 249
     3bc:	80 93 0a 20 	sts	0x200A, r24
     3c0:	78 cf       	rjmp	.-272    	; 0x2b2 <__vector_13+0x6c>
     3c2:	16 96       	adiw	r26, 0x06	; 6
     3c4:	2d 91       	ld	r18, X+
     3c6:	3c 91       	ld	r19, X
     3c8:	17 97       	sbiw	r26, 0x07	; 7
     3ca:	ac 01       	movw	r20, r24
     3cc:	4f 5f       	subi	r20, 0xFF	; 255
     3ce:	5f 4f       	sbci	r21, 0xFF	; 255
     3d0:	40 93 06 20 	sts	0x2006, r20
     3d4:	50 93 07 20 	sts	0x2007, r21
     3d8:	d9 01       	movw	r26, r18
     3da:	a8 0f       	add	r26, r24
     3dc:	b9 1f       	adc	r27, r25
     3de:	8c 91       	ld	r24, X
     3e0:	87 83       	std	Z+7, r24	; 0x07
     3e2:	67 cf       	rjmp	.-306    	; 0x2b2 <__vector_13+0x6c>
     3e4:	87 e0       	ldi	r24, 0x07	; 7
     3e6:	83 83       	std	Z+3, r24	; 0x03
     3e8:	10 92 0a 20 	sts	0x200A, r1
     3ec:	62 cf       	rjmp	.-316    	; 0x2b2 <__vector_13+0x6c>

000003ee <__vector_46>:
     3ee:	1f 92       	push	r1
     3f0:	0f 92       	push	r0
     3f2:	0f b6       	in	r0, 0x3f	; 63
     3f4:	0f 92       	push	r0
     3f6:	11 24       	eor	r1, r1
     3f8:	08 b6       	in	r0, 0x38	; 56
     3fa:	0f 92       	push	r0
     3fc:	18 be       	out	0x38, r1	; 56
     3fe:	09 b6       	in	r0, 0x39	; 57
     400:	0f 92       	push	r0
     402:	19 be       	out	0x39, r1	; 57
     404:	0a b6       	in	r0, 0x3a	; 58
     406:	0f 92       	push	r0
     408:	1a be       	out	0x3a, r1	; 58
     40a:	0b b6       	in	r0, 0x3b	; 59
     40c:	0f 92       	push	r0
     40e:	1b be       	out	0x3b, r1	; 59
     410:	2f 93       	push	r18
     412:	3f 93       	push	r19
     414:	4f 93       	push	r20
     416:	5f 93       	push	r21
     418:	6f 93       	push	r22
     41a:	7f 93       	push	r23
     41c:	8f 93       	push	r24
     41e:	9f 93       	push	r25
     420:	af 93       	push	r26
     422:	bf 93       	push	r27
     424:	cf 93       	push	r28
     426:	df 93       	push	r29
     428:	ef 93       	push	r30
     42a:	ff 93       	push	r31
     42c:	e0 91 00 20 	lds	r30, 0x2000
     430:	f0 91 01 20 	lds	r31, 0x2001
     434:	84 81       	ldd	r24, Z+4	; 0x04
     436:	83 fd       	sbrc	r24, 3
     438:	2b c0       	rjmp	.+86     	; 0x490 <__vector_46+0xa2>
     43a:	98 2f       	mov	r25, r24
     43c:	94 71       	andi	r25, 0x14	; 20
     43e:	41 f4       	brne	.+16     	; 0x450 <__vector_46+0x62>
     440:	86 fd       	sbrc	r24, 6
     442:	2e c0       	rjmp	.+92     	; 0x4a0 <__vector_46+0xb2>
     444:	87 fd       	sbrc	r24, 7
     446:	5d c0       	rjmp	.+186    	; 0x502 <__vector_46+0x114>
     448:	8b ef       	ldi	r24, 0xFB	; 251
     44a:	80 93 0a 20 	sts	0x200A, r24
     44e:	05 c0       	rjmp	.+10     	; 0x45a <__vector_46+0x6c>
     450:	83 e0       	ldi	r24, 0x03	; 3
     452:	83 83       	std	Z+3, r24	; 0x03
     454:	8f ef       	ldi	r24, 0xFF	; 255
     456:	80 93 0a 20 	sts	0x200A, r24
     45a:	ff 91       	pop	r31
     45c:	ef 91       	pop	r30
     45e:	df 91       	pop	r29
     460:	cf 91       	pop	r28
     462:	bf 91       	pop	r27
     464:	af 91       	pop	r26
     466:	9f 91       	pop	r25
     468:	8f 91       	pop	r24
     46a:	7f 91       	pop	r23
     46c:	6f 91       	pop	r22
     46e:	5f 91       	pop	r21
     470:	4f 91       	pop	r20
     472:	3f 91       	pop	r19
     474:	2f 91       	pop	r18
     476:	0f 90       	pop	r0
     478:	0b be       	out	0x3b, r0	; 59
     47a:	0f 90       	pop	r0
     47c:	0a be       	out	0x3a, r0	; 58
     47e:	0f 90       	pop	r0
     480:	09 be       	out	0x39, r0	; 57
     482:	0f 90       	pop	r0
     484:	08 be       	out	0x38, r0	; 56
     486:	0f 90       	pop	r0
     488:	0f be       	out	0x3f, r0	; 63
     48a:	0f 90       	pop	r0
     48c:	1f 90       	pop	r1
     48e:	18 95       	reti
     490:	88 60       	ori	r24, 0x08	; 8
     492:	84 83       	std	Z+4, r24	; 0x04
     494:	83 e0       	ldi	r24, 0x03	; 3
     496:	83 83       	std	Z+3, r24	; 0x03
     498:	86 ef       	ldi	r24, 0xF6	; 246
     49a:	80 93 0a 20 	sts	0x200A, r24
     49e:	dd cf       	rjmp	.-70     	; 0x45a <__vector_46+0x6c>
     4a0:	a0 91 02 20 	lds	r26, 0x2002
     4a4:	b0 91 03 20 	lds	r27, 0x2003
     4a8:	80 91 04 20 	lds	r24, 0x2004
     4ac:	90 91 05 20 	lds	r25, 0x2005
     4b0:	14 96       	adiw	r26, 0x04	; 4
     4b2:	2d 91       	ld	r18, X+
     4b4:	3c 91       	ld	r19, X
     4b6:	15 97       	sbiw	r26, 0x05	; 5
     4b8:	82 17       	cp	r24, r18
     4ba:	93 07       	cpc	r25, r19
     4bc:	ac f0       	brlt	.+42     	; 0x4e8 <__vector_46+0xfa>
     4be:	80 91 06 20 	lds	r24, 0x2006
     4c2:	90 91 07 20 	lds	r25, 0x2007
     4c6:	18 96       	adiw	r26, 0x08	; 8
     4c8:	2d 91       	ld	r18, X+
     4ca:	3c 91       	ld	r19, X
     4cc:	19 97       	sbiw	r26, 0x09	; 9
     4ce:	82 17       	cp	r24, r18
     4d0:	93 07       	cpc	r25, r19
     4d2:	08 f0       	brcs	.+2      	; 0x4d6 <__vector_46+0xe8>
     4d4:	3f c0       	rjmp	.+126    	; 0x554 <__vector_46+0x166>
     4d6:	20 91 08 20 	lds	r18, 0x2008
     4da:	22 23       	and	r18, r18
     4dc:	09 f4       	brne	.+2      	; 0x4e0 <__vector_46+0xf2>
     4de:	45 c0       	rjmp	.+138    	; 0x56a <__vector_46+0x17c>
     4e0:	86 81       	ldd	r24, Z+6	; 0x06
     4e2:	81 60       	ori	r24, 0x01	; 1
     4e4:	86 83       	std	Z+6, r24	; 0x06
     4e6:	b9 cf       	rjmp	.-142    	; 0x45a <__vector_46+0x6c>
     4e8:	9c 01       	movw	r18, r24
     4ea:	2f 5f       	subi	r18, 0xFF	; 255
     4ec:	3f 4f       	sbci	r19, 0xFF	; 255
     4ee:	20 93 04 20 	sts	0x2004, r18
     4f2:	30 93 05 20 	sts	0x2005, r19
     4f6:	a8 0f       	add	r26, r24
     4f8:	b9 1f       	adc	r27, r25
     4fa:	11 96       	adiw	r26, 0x01	; 1
     4fc:	8c 91       	ld	r24, X
     4fe:	87 83       	std	Z+7, r24	; 0x07
     500:	ac cf       	rjmp	.-168    	; 0x45a <__vector_46+0x6c>
     502:	a0 91 02 20 	lds	r26, 0x2002
     506:	b0 91 03 20 	lds	r27, 0x2003
     50a:	80 91 06 20 	lds	r24, 0x2006
     50e:	90 91 07 20 	lds	r25, 0x2007
     512:	18 96       	adiw	r26, 0x08	; 8
     514:	2d 91       	ld	r18, X+
     516:	3c 91       	ld	r19, X
     518:	19 97       	sbiw	r26, 0x09	; 9
     51a:	82 17       	cp	r24, r18
     51c:	93 07       	cpc	r25, r19
     51e:	f8 f4       	brcc	.+62     	; 0x55e <__vector_46+0x170>
     520:	16 96       	adiw	r26, 0x06	; 6
     522:	6d 91       	ld	r22, X+
     524:	7c 91       	ld	r23, X
     526:	17 97       	sbiw	r26, 0x07	; 7
     528:	9c 01       	movw	r18, r24
     52a:	2f 5f       	subi	r18, 0xFF	; 255
     52c:	3f 4f       	sbci	r19, 0xFF	; 255
     52e:	20 93 06 20 	sts	0x2006, r18
     532:	30 93 07 20 	sts	0x2007, r19
     536:	47 81       	ldd	r20, Z+7	; 0x07
     538:	eb 01       	movw	r28, r22
     53a:	c8 0f       	add	r28, r24
     53c:	d9 1f       	adc	r29, r25
     53e:	48 83       	st	Y, r20
     540:	18 96       	adiw	r26, 0x08	; 8
     542:	8d 91       	ld	r24, X+
     544:	9c 91       	ld	r25, X
     546:	19 97       	sbiw	r26, 0x09	; 9
     548:	28 17       	cp	r18, r24
     54a:	39 07       	cpc	r19, r25
     54c:	f8 f4       	brcc	.+62     	; 0x58c <__vector_46+0x19e>
     54e:	82 e0       	ldi	r24, 0x02	; 2
     550:	83 83       	std	Z+3, r24	; 0x03
     552:	83 cf       	rjmp	.-250    	; 0x45a <__vector_46+0x6c>
     554:	83 e0       	ldi	r24, 0x03	; 3
     556:	83 83       	std	Z+3, r24	; 0x03
     558:	10 92 0a 20 	sts	0x200A, r1
     55c:	7e cf       	rjmp	.-260    	; 0x45a <__vector_46+0x6c>
     55e:	83 e0       	ldi	r24, 0x03	; 3
     560:	83 83       	std	Z+3, r24	; 0x03
     562:	89 ef       	ldi	r24, 0xF9	; 249
     564:	80 93 0a 20 	sts	0x200A, r24
     568:	78 cf       	rjmp	.-272    	; 0x45a <__vector_46+0x6c>
     56a:	16 96       	adiw	r26, 0x06	; 6
     56c:	2d 91       	ld	r18, X+
     56e:	3c 91       	ld	r19, X
     570:	17 97       	sbiw	r26, 0x07	; 7
     572:	ac 01       	movw	r20, r24
     574:	4f 5f       	subi	r20, 0xFF	; 255
     576:	5f 4f       	sbci	r21, 0xFF	; 255
     578:	40 93 06 20 	sts	0x2006, r20
     57c:	50 93 07 20 	sts	0x2007, r21
     580:	d9 01       	movw	r26, r18
     582:	a8 0f       	add	r26, r24
     584:	b9 1f       	adc	r27, r25
     586:	8c 91       	ld	r24, X
     588:	87 83       	std	Z+7, r24	; 0x07
     58a:	67 cf       	rjmp	.-306    	; 0x45a <__vector_46+0x6c>
     58c:	87 e0       	ldi	r24, 0x07	; 7
     58e:	83 83       	std	Z+3, r24	; 0x03
     590:	10 92 0a 20 	sts	0x200A, r1
     594:	62 cf       	rjmp	.-316    	; 0x45a <__vector_46+0x6c>

00000596 <toggleChargePump>:
     596:	80 91 08 06 	lds	r24, 0x0608
     59a:	81 fd       	sbrc	r24, 1
     59c:	04 c0       	rjmp	.+8      	; 0x5a6 <toggleChargePump+0x10>
     59e:	82 e0       	ldi	r24, 0x02	; 2
     5a0:	80 93 05 06 	sts	0x0605, r24
     5a4:	08 95       	ret
     5a6:	82 e0       	ldi	r24, 0x02	; 2
     5a8:	80 93 06 06 	sts	0x0606, r24
     5ac:	08 95       	ret

000005ae <canbusSerialRouting>:
     5ae:	94 e0       	ldi	r25, 0x04	; 4
     5b0:	90 93 26 06 	sts	0x0626, r25
     5b4:	28 e0       	ldi	r18, 0x08	; 8
     5b6:	20 93 26 06 	sts	0x0626, r18
     5ba:	81 30       	cpi	r24, 0x01	; 1
     5bc:	19 f0       	breq	.+6      	; 0x5c4 <canbusSerialRouting+0x16>
     5be:	90 93 25 06 	sts	0x0625, r25
     5c2:	08 95       	ret
     5c4:	20 93 25 06 	sts	0x0625, r18
     5c8:	08 95       	ret

000005ca <shiftRegisterInit>:
     5ca:	80 e0       	ldi	r24, 0x00	; 0
     5cc:	90 e8       	ldi	r25, 0x80	; 128
     5ce:	80 93 0b 20 	sts	0x200B, r24
     5d2:	90 93 0c 20 	sts	0x200C, r25
     5d6:	e0 e4       	ldi	r30, 0x40	; 64
     5d8:	f6 e0       	ldi	r31, 0x06	; 6
     5da:	81 e0       	ldi	r24, 0x01	; 1
     5dc:	85 83       	std	Z+5, r24	; 0x05
     5de:	86 83       	std	Z+6, r24	; 0x06
     5e0:	85 83       	std	Z+5, r24	; 0x05
     5e2:	22 e0       	ldi	r18, 0x02	; 2
     5e4:	26 83       	std	Z+6, r18	; 0x06
     5e6:	25 83       	std	Z+5, r18	; 0x05
     5e8:	26 83       	std	Z+6, r18	; 0x06
     5ea:	90 e2       	ldi	r25, 0x20	; 32
     5ec:	96 83       	std	Z+6, r25	; 0x06
     5ee:	80 e8       	ldi	r24, 0x80	; 128
     5f0:	85 83       	std	Z+5, r24	; 0x05
     5f2:	86 83       	std	Z+6, r24	; 0x06
     5f4:	96 83       	std	Z+6, r25	; 0x06
     5f6:	85 83       	std	Z+5, r24	; 0x05
     5f8:	86 83       	std	Z+6, r24	; 0x06
     5fa:	96 83       	std	Z+6, r25	; 0x06
     5fc:	85 83       	std	Z+5, r24	; 0x05
     5fe:	86 83       	std	Z+6, r24	; 0x06
     600:	96 83       	std	Z+6, r25	; 0x06
     602:	85 83       	std	Z+5, r24	; 0x05
     604:	86 83       	std	Z+6, r24	; 0x06
     606:	96 83       	std	Z+6, r25	; 0x06
     608:	85 83       	std	Z+5, r24	; 0x05
     60a:	86 83       	std	Z+6, r24	; 0x06
     60c:	96 83       	std	Z+6, r25	; 0x06
     60e:	85 83       	std	Z+5, r24	; 0x05
     610:	86 83       	std	Z+6, r24	; 0x06
     612:	96 83       	std	Z+6, r25	; 0x06
     614:	85 83       	std	Z+5, r24	; 0x05
     616:	86 83       	std	Z+6, r24	; 0x06
     618:	96 83       	std	Z+6, r25	; 0x06
     61a:	85 83       	std	Z+5, r24	; 0x05
     61c:	86 83       	std	Z+6, r24	; 0x06
     61e:	96 83       	std	Z+6, r25	; 0x06
     620:	85 83       	std	Z+5, r24	; 0x05
     622:	86 83       	std	Z+6, r24	; 0x06
     624:	96 83       	std	Z+6, r25	; 0x06
     626:	85 83       	std	Z+5, r24	; 0x05
     628:	86 83       	std	Z+6, r24	; 0x06
     62a:	96 83       	std	Z+6, r25	; 0x06
     62c:	85 83       	std	Z+5, r24	; 0x05
     62e:	86 83       	std	Z+6, r24	; 0x06
     630:	96 83       	std	Z+6, r25	; 0x06
     632:	85 83       	std	Z+5, r24	; 0x05
     634:	86 83       	std	Z+6, r24	; 0x06
     636:	96 83       	std	Z+6, r25	; 0x06
     638:	85 83       	std	Z+5, r24	; 0x05
     63a:	86 83       	std	Z+6, r24	; 0x06
     63c:	96 83       	std	Z+6, r25	; 0x06
     63e:	85 83       	std	Z+5, r24	; 0x05
     640:	86 83       	std	Z+6, r24	; 0x06
     642:	96 83       	std	Z+6, r25	; 0x06
     644:	85 83       	std	Z+5, r24	; 0x05
     646:	86 83       	std	Z+6, r24	; 0x06
     648:	95 83       	std	Z+5, r25	; 0x05
     64a:	85 83       	std	Z+5, r24	; 0x05
     64c:	86 83       	std	Z+6, r24	; 0x06
     64e:	26 83       	std	Z+6, r18	; 0x06
     650:	25 83       	std	Z+5, r18	; 0x05
     652:	26 83       	std	Z+6, r18	; 0x06
     654:	08 95       	ret

00000656 <turn_on>:
     656:	20 91 0b 20 	lds	r18, 0x200B
     65a:	30 91 0c 20 	lds	r19, 0x200C
     65e:	82 2b       	or	r24, r18
     660:	93 2b       	or	r25, r19
     662:	80 93 0b 20 	sts	0x200B, r24
     666:	90 93 0c 20 	sts	0x200C, r25
     66a:	20 e2       	ldi	r18, 0x20	; 32
     66c:	80 fd       	sbrc	r24, 0
     66e:	bb c0       	rjmp	.+374    	; 0x7e6 <turn_on+0x190>
     670:	20 93 46 06 	sts	0x0646, r18
     674:	20 e8       	ldi	r18, 0x80	; 128
     676:	20 93 45 06 	sts	0x0645, r18
     67a:	20 93 46 06 	sts	0x0646, r18
     67e:	20 e2       	ldi	r18, 0x20	; 32
     680:	81 fd       	sbrc	r24, 1
     682:	bb c0       	rjmp	.+374    	; 0x7fa <turn_on+0x1a4>
     684:	20 93 46 06 	sts	0x0646, r18
     688:	20 e8       	ldi	r18, 0x80	; 128
     68a:	20 93 45 06 	sts	0x0645, r18
     68e:	20 93 46 06 	sts	0x0646, r18
     692:	20 e2       	ldi	r18, 0x20	; 32
     694:	82 fd       	sbrc	r24, 2
     696:	bb c0       	rjmp	.+374    	; 0x80e <turn_on+0x1b8>
     698:	20 93 46 06 	sts	0x0646, r18
     69c:	20 e8       	ldi	r18, 0x80	; 128
     69e:	20 93 45 06 	sts	0x0645, r18
     6a2:	20 93 46 06 	sts	0x0646, r18
     6a6:	20 e2       	ldi	r18, 0x20	; 32
     6a8:	83 fd       	sbrc	r24, 3
     6aa:	bb c0       	rjmp	.+374    	; 0x822 <turn_on+0x1cc>
     6ac:	20 93 46 06 	sts	0x0646, r18
     6b0:	20 e8       	ldi	r18, 0x80	; 128
     6b2:	20 93 45 06 	sts	0x0645, r18
     6b6:	20 93 46 06 	sts	0x0646, r18
     6ba:	20 e2       	ldi	r18, 0x20	; 32
     6bc:	84 fd       	sbrc	r24, 4
     6be:	bb c0       	rjmp	.+374    	; 0x836 <turn_on+0x1e0>
     6c0:	20 93 46 06 	sts	0x0646, r18
     6c4:	20 e8       	ldi	r18, 0x80	; 128
     6c6:	20 93 45 06 	sts	0x0645, r18
     6ca:	20 93 46 06 	sts	0x0646, r18
     6ce:	20 e2       	ldi	r18, 0x20	; 32
     6d0:	85 fd       	sbrc	r24, 5
     6d2:	bb c0       	rjmp	.+374    	; 0x84a <turn_on+0x1f4>
     6d4:	20 93 46 06 	sts	0x0646, r18
     6d8:	20 e8       	ldi	r18, 0x80	; 128
     6da:	20 93 45 06 	sts	0x0645, r18
     6de:	20 93 46 06 	sts	0x0646, r18
     6e2:	20 e2       	ldi	r18, 0x20	; 32
     6e4:	86 fd       	sbrc	r24, 6
     6e6:	bb c0       	rjmp	.+374    	; 0x85e <turn_on+0x208>
     6e8:	20 93 46 06 	sts	0x0646, r18
     6ec:	20 e8       	ldi	r18, 0x80	; 128
     6ee:	20 93 45 06 	sts	0x0645, r18
     6f2:	20 93 46 06 	sts	0x0646, r18
     6f6:	20 e2       	ldi	r18, 0x20	; 32
     6f8:	87 fd       	sbrc	r24, 7
     6fa:	bb c0       	rjmp	.+374    	; 0x872 <turn_on+0x21c>
     6fc:	20 93 46 06 	sts	0x0646, r18
     700:	20 e8       	ldi	r18, 0x80	; 128
     702:	20 93 45 06 	sts	0x0645, r18
     706:	20 93 46 06 	sts	0x0646, r18
     70a:	20 e2       	ldi	r18, 0x20	; 32
     70c:	90 fd       	sbrc	r25, 0
     70e:	bb c0       	rjmp	.+374    	; 0x886 <turn_on+0x230>
     710:	20 93 46 06 	sts	0x0646, r18
     714:	20 e8       	ldi	r18, 0x80	; 128
     716:	20 93 45 06 	sts	0x0645, r18
     71a:	20 93 46 06 	sts	0x0646, r18
     71e:	29 2f       	mov	r18, r25
     720:	26 95       	lsr	r18
     722:	20 fd       	sbrc	r18, 0
     724:	cb c0       	rjmp	.+406    	; 0x8bc <turn_on+0x266>
     726:	20 e2       	ldi	r18, 0x20	; 32
     728:	20 93 46 06 	sts	0x0646, r18
     72c:	20 e8       	ldi	r18, 0x80	; 128
     72e:	20 93 45 06 	sts	0x0645, r18
     732:	20 93 46 06 	sts	0x0646, r18
     736:	29 2f       	mov	r18, r25
     738:	26 95       	lsr	r18
     73a:	26 95       	lsr	r18
     73c:	20 fd       	sbrc	r18, 0
     73e:	ba c0       	rjmp	.+372    	; 0x8b4 <turn_on+0x25e>
     740:	20 e2       	ldi	r18, 0x20	; 32
     742:	20 93 46 06 	sts	0x0646, r18
     746:	20 e8       	ldi	r18, 0x80	; 128
     748:	20 93 45 06 	sts	0x0645, r18
     74c:	20 93 46 06 	sts	0x0646, r18
     750:	29 2f       	mov	r18, r25
     752:	26 95       	lsr	r18
     754:	26 95       	lsr	r18
     756:	26 95       	lsr	r18
     758:	20 fd       	sbrc	r18, 0
     75a:	a8 c0       	rjmp	.+336    	; 0x8ac <turn_on+0x256>
     75c:	20 e2       	ldi	r18, 0x20	; 32
     75e:	20 93 46 06 	sts	0x0646, r18
     762:	20 e8       	ldi	r18, 0x80	; 128
     764:	20 93 45 06 	sts	0x0645, r18
     768:	20 93 46 06 	sts	0x0646, r18
     76c:	29 2f       	mov	r18, r25
     76e:	22 95       	swap	r18
     770:	2f 70       	andi	r18, 0x0F	; 15
     772:	20 fd       	sbrc	r18, 0
     774:	97 c0       	rjmp	.+302    	; 0x8a4 <turn_on+0x24e>
     776:	20 e2       	ldi	r18, 0x20	; 32
     778:	20 93 46 06 	sts	0x0646, r18
     77c:	20 e8       	ldi	r18, 0x80	; 128
     77e:	20 93 45 06 	sts	0x0645, r18
     782:	20 93 46 06 	sts	0x0646, r18
     786:	29 2f       	mov	r18, r25
     788:	22 95       	swap	r18
     78a:	26 95       	lsr	r18
     78c:	27 70       	andi	r18, 0x07	; 7
     78e:	20 fd       	sbrc	r18, 0
     790:	85 c0       	rjmp	.+266    	; 0x89c <turn_on+0x246>
     792:	20 e2       	ldi	r18, 0x20	; 32
     794:	20 93 46 06 	sts	0x0646, r18
     798:	20 e8       	ldi	r18, 0x80	; 128
     79a:	20 93 45 06 	sts	0x0645, r18
     79e:	20 93 46 06 	sts	0x0646, r18
     7a2:	9c 01       	movw	r18, r24
     7a4:	24 e0       	ldi	r18, 0x04	; 4
     7a6:	32 9f       	mul	r19, r18
     7a8:	21 2d       	mov	r18, r1
     7aa:	33 27       	eor	r19, r19
     7ac:	11 24       	eor	r1, r1
     7ae:	20 fd       	sbrc	r18, 0
     7b0:	71 c0       	rjmp	.+226    	; 0x894 <turn_on+0x23e>
     7b2:	20 e2       	ldi	r18, 0x20	; 32
     7b4:	20 93 46 06 	sts	0x0646, r18
     7b8:	20 e8       	ldi	r18, 0x80	; 128
     7ba:	20 93 45 06 	sts	0x0645, r18
     7be:	20 93 46 06 	sts	0x0646, r18
     7c2:	97 ff       	sbrs	r25, 7
     7c4:	63 c0       	rjmp	.+198    	; 0x88c <turn_on+0x236>
     7c6:	80 e2       	ldi	r24, 0x20	; 32
     7c8:	80 93 45 06 	sts	0x0645, r24
     7cc:	80 e8       	ldi	r24, 0x80	; 128
     7ce:	80 93 45 06 	sts	0x0645, r24
     7d2:	80 93 46 06 	sts	0x0646, r24
     7d6:	82 e0       	ldi	r24, 0x02	; 2
     7d8:	80 93 46 06 	sts	0x0646, r24
     7dc:	80 93 45 06 	sts	0x0645, r24
     7e0:	80 93 46 06 	sts	0x0646, r24
     7e4:	08 95       	ret
     7e6:	20 93 45 06 	sts	0x0645, r18
     7ea:	20 e8       	ldi	r18, 0x80	; 128
     7ec:	20 93 45 06 	sts	0x0645, r18
     7f0:	20 93 46 06 	sts	0x0646, r18
     7f4:	20 e2       	ldi	r18, 0x20	; 32
     7f6:	81 ff       	sbrs	r24, 1
     7f8:	45 cf       	rjmp	.-374    	; 0x684 <turn_on+0x2e>
     7fa:	20 93 45 06 	sts	0x0645, r18
     7fe:	20 e8       	ldi	r18, 0x80	; 128
     800:	20 93 45 06 	sts	0x0645, r18
     804:	20 93 46 06 	sts	0x0646, r18
     808:	20 e2       	ldi	r18, 0x20	; 32
     80a:	82 ff       	sbrs	r24, 2
     80c:	45 cf       	rjmp	.-374    	; 0x698 <turn_on+0x42>
     80e:	20 93 45 06 	sts	0x0645, r18
     812:	20 e8       	ldi	r18, 0x80	; 128
     814:	20 93 45 06 	sts	0x0645, r18
     818:	20 93 46 06 	sts	0x0646, r18
     81c:	20 e2       	ldi	r18, 0x20	; 32
     81e:	83 ff       	sbrs	r24, 3
     820:	45 cf       	rjmp	.-374    	; 0x6ac <turn_on+0x56>
     822:	20 93 45 06 	sts	0x0645, r18
     826:	20 e8       	ldi	r18, 0x80	; 128
     828:	20 93 45 06 	sts	0x0645, r18
     82c:	20 93 46 06 	sts	0x0646, r18
     830:	20 e2       	ldi	r18, 0x20	; 32
     832:	84 ff       	sbrs	r24, 4
     834:	45 cf       	rjmp	.-374    	; 0x6c0 <turn_on+0x6a>
     836:	20 93 45 06 	sts	0x0645, r18
     83a:	20 e8       	ldi	r18, 0x80	; 128
     83c:	20 93 45 06 	sts	0x0645, r18
     840:	20 93 46 06 	sts	0x0646, r18
     844:	20 e2       	ldi	r18, 0x20	; 32
     846:	85 ff       	sbrs	r24, 5
     848:	45 cf       	rjmp	.-374    	; 0x6d4 <turn_on+0x7e>
     84a:	20 93 45 06 	sts	0x0645, r18
     84e:	20 e8       	ldi	r18, 0x80	; 128
     850:	20 93 45 06 	sts	0x0645, r18
     854:	20 93 46 06 	sts	0x0646, r18
     858:	20 e2       	ldi	r18, 0x20	; 32
     85a:	86 ff       	sbrs	r24, 6
     85c:	45 cf       	rjmp	.-374    	; 0x6e8 <turn_on+0x92>
     85e:	20 93 45 06 	sts	0x0645, r18
     862:	20 e8       	ldi	r18, 0x80	; 128
     864:	20 93 45 06 	sts	0x0645, r18
     868:	20 93 46 06 	sts	0x0646, r18
     86c:	20 e2       	ldi	r18, 0x20	; 32
     86e:	87 ff       	sbrs	r24, 7
     870:	45 cf       	rjmp	.-374    	; 0x6fc <turn_on+0xa6>
     872:	20 93 45 06 	sts	0x0645, r18
     876:	20 e8       	ldi	r18, 0x80	; 128
     878:	20 93 45 06 	sts	0x0645, r18
     87c:	20 93 46 06 	sts	0x0646, r18
     880:	20 e2       	ldi	r18, 0x20	; 32
     882:	90 ff       	sbrs	r25, 0
     884:	45 cf       	rjmp	.-374    	; 0x710 <turn_on+0xba>
     886:	20 93 45 06 	sts	0x0645, r18
     88a:	44 cf       	rjmp	.-376    	; 0x714 <turn_on+0xbe>
     88c:	80 e2       	ldi	r24, 0x20	; 32
     88e:	80 93 46 06 	sts	0x0646, r24
     892:	9c cf       	rjmp	.-200    	; 0x7cc <turn_on+0x176>
     894:	20 e2       	ldi	r18, 0x20	; 32
     896:	20 93 45 06 	sts	0x0645, r18
     89a:	8e cf       	rjmp	.-228    	; 0x7b8 <turn_on+0x162>
     89c:	20 e2       	ldi	r18, 0x20	; 32
     89e:	20 93 45 06 	sts	0x0645, r18
     8a2:	7a cf       	rjmp	.-268    	; 0x798 <turn_on+0x142>
     8a4:	20 e2       	ldi	r18, 0x20	; 32
     8a6:	20 93 45 06 	sts	0x0645, r18
     8aa:	68 cf       	rjmp	.-304    	; 0x77c <turn_on+0x126>
     8ac:	20 e2       	ldi	r18, 0x20	; 32
     8ae:	20 93 45 06 	sts	0x0645, r18
     8b2:	57 cf       	rjmp	.-338    	; 0x762 <turn_on+0x10c>
     8b4:	20 e2       	ldi	r18, 0x20	; 32
     8b6:	20 93 45 06 	sts	0x0645, r18
     8ba:	45 cf       	rjmp	.-374    	; 0x746 <turn_on+0xf0>
     8bc:	20 e2       	ldi	r18, 0x20	; 32
     8be:	20 93 45 06 	sts	0x0645, r18
     8c2:	34 cf       	rjmp	.-408    	; 0x72c <turn_on+0xd6>

000008c4 <turn_off>:
     8c4:	80 95       	com	r24
     8c6:	90 95       	com	r25
     8c8:	20 91 0b 20 	lds	r18, 0x200B
     8cc:	30 91 0c 20 	lds	r19, 0x200C
     8d0:	82 23       	and	r24, r18
     8d2:	93 23       	and	r25, r19
     8d4:	80 93 0b 20 	sts	0x200B, r24
     8d8:	90 93 0c 20 	sts	0x200C, r25
     8dc:	20 e2       	ldi	r18, 0x20	; 32
     8de:	80 fd       	sbrc	r24, 0
     8e0:	bb c0       	rjmp	.+374    	; 0xa58 <turn_off+0x194>
     8e2:	20 93 46 06 	sts	0x0646, r18
     8e6:	20 e8       	ldi	r18, 0x80	; 128
     8e8:	20 93 45 06 	sts	0x0645, r18
     8ec:	20 93 46 06 	sts	0x0646, r18
     8f0:	20 e2       	ldi	r18, 0x20	; 32
     8f2:	81 fd       	sbrc	r24, 1
     8f4:	bb c0       	rjmp	.+374    	; 0xa6c <turn_off+0x1a8>
     8f6:	20 93 46 06 	sts	0x0646, r18
     8fa:	20 e8       	ldi	r18, 0x80	; 128
     8fc:	20 93 45 06 	sts	0x0645, r18
     900:	20 93 46 06 	sts	0x0646, r18
     904:	20 e2       	ldi	r18, 0x20	; 32
     906:	82 fd       	sbrc	r24, 2
     908:	bb c0       	rjmp	.+374    	; 0xa80 <turn_off+0x1bc>
     90a:	20 93 46 06 	sts	0x0646, r18
     90e:	20 e8       	ldi	r18, 0x80	; 128
     910:	20 93 45 06 	sts	0x0645, r18
     914:	20 93 46 06 	sts	0x0646, r18
     918:	20 e2       	ldi	r18, 0x20	; 32
     91a:	83 fd       	sbrc	r24, 3
     91c:	bb c0       	rjmp	.+374    	; 0xa94 <turn_off+0x1d0>
     91e:	20 93 46 06 	sts	0x0646, r18
     922:	20 e8       	ldi	r18, 0x80	; 128
     924:	20 93 45 06 	sts	0x0645, r18
     928:	20 93 46 06 	sts	0x0646, r18
     92c:	20 e2       	ldi	r18, 0x20	; 32
     92e:	84 fd       	sbrc	r24, 4
     930:	bb c0       	rjmp	.+374    	; 0xaa8 <turn_off+0x1e4>
     932:	20 93 46 06 	sts	0x0646, r18
     936:	20 e8       	ldi	r18, 0x80	; 128
     938:	20 93 45 06 	sts	0x0645, r18
     93c:	20 93 46 06 	sts	0x0646, r18
     940:	20 e2       	ldi	r18, 0x20	; 32
     942:	85 fd       	sbrc	r24, 5
     944:	bb c0       	rjmp	.+374    	; 0xabc <turn_off+0x1f8>
     946:	20 93 46 06 	sts	0x0646, r18
     94a:	20 e8       	ldi	r18, 0x80	; 128
     94c:	20 93 45 06 	sts	0x0645, r18
     950:	20 93 46 06 	sts	0x0646, r18
     954:	20 e2       	ldi	r18, 0x20	; 32
     956:	86 fd       	sbrc	r24, 6
     958:	bb c0       	rjmp	.+374    	; 0xad0 <turn_off+0x20c>
     95a:	20 93 46 06 	sts	0x0646, r18
     95e:	20 e8       	ldi	r18, 0x80	; 128
     960:	20 93 45 06 	sts	0x0645, r18
     964:	20 93 46 06 	sts	0x0646, r18
     968:	20 e2       	ldi	r18, 0x20	; 32
     96a:	87 fd       	sbrc	r24, 7
     96c:	bb c0       	rjmp	.+374    	; 0xae4 <turn_off+0x220>
     96e:	20 93 46 06 	sts	0x0646, r18
     972:	20 e8       	ldi	r18, 0x80	; 128
     974:	20 93 45 06 	sts	0x0645, r18
     978:	20 93 46 06 	sts	0x0646, r18
     97c:	20 e2       	ldi	r18, 0x20	; 32
     97e:	90 fd       	sbrc	r25, 0
     980:	bb c0       	rjmp	.+374    	; 0xaf8 <turn_off+0x234>
     982:	20 93 46 06 	sts	0x0646, r18
     986:	20 e8       	ldi	r18, 0x80	; 128
     988:	20 93 45 06 	sts	0x0645, r18
     98c:	20 93 46 06 	sts	0x0646, r18
     990:	29 2f       	mov	r18, r25
     992:	26 95       	lsr	r18
     994:	20 fd       	sbrc	r18, 0
     996:	cb c0       	rjmp	.+406    	; 0xb2e <turn_off+0x26a>
     998:	20 e2       	ldi	r18, 0x20	; 32
     99a:	20 93 46 06 	sts	0x0646, r18
     99e:	20 e8       	ldi	r18, 0x80	; 128
     9a0:	20 93 45 06 	sts	0x0645, r18
     9a4:	20 93 46 06 	sts	0x0646, r18
     9a8:	29 2f       	mov	r18, r25
     9aa:	26 95       	lsr	r18
     9ac:	26 95       	lsr	r18
     9ae:	20 fd       	sbrc	r18, 0
     9b0:	ba c0       	rjmp	.+372    	; 0xb26 <turn_off+0x262>
     9b2:	20 e2       	ldi	r18, 0x20	; 32
     9b4:	20 93 46 06 	sts	0x0646, r18
     9b8:	20 e8       	ldi	r18, 0x80	; 128
     9ba:	20 93 45 06 	sts	0x0645, r18
     9be:	20 93 46 06 	sts	0x0646, r18
     9c2:	29 2f       	mov	r18, r25
     9c4:	26 95       	lsr	r18
     9c6:	26 95       	lsr	r18
     9c8:	26 95       	lsr	r18
     9ca:	20 fd       	sbrc	r18, 0
     9cc:	a8 c0       	rjmp	.+336    	; 0xb1e <turn_off+0x25a>
     9ce:	20 e2       	ldi	r18, 0x20	; 32
     9d0:	20 93 46 06 	sts	0x0646, r18
     9d4:	20 e8       	ldi	r18, 0x80	; 128
     9d6:	20 93 45 06 	sts	0x0645, r18
     9da:	20 93 46 06 	sts	0x0646, r18
     9de:	29 2f       	mov	r18, r25
     9e0:	22 95       	swap	r18
     9e2:	2f 70       	andi	r18, 0x0F	; 15
     9e4:	20 fd       	sbrc	r18, 0
     9e6:	97 c0       	rjmp	.+302    	; 0xb16 <turn_off+0x252>
     9e8:	20 e2       	ldi	r18, 0x20	; 32
     9ea:	20 93 46 06 	sts	0x0646, r18
     9ee:	20 e8       	ldi	r18, 0x80	; 128
     9f0:	20 93 45 06 	sts	0x0645, r18
     9f4:	20 93 46 06 	sts	0x0646, r18
     9f8:	29 2f       	mov	r18, r25
     9fa:	22 95       	swap	r18
     9fc:	26 95       	lsr	r18
     9fe:	27 70       	andi	r18, 0x07	; 7
     a00:	20 fd       	sbrc	r18, 0
     a02:	85 c0       	rjmp	.+266    	; 0xb0e <turn_off+0x24a>
     a04:	20 e2       	ldi	r18, 0x20	; 32
     a06:	20 93 46 06 	sts	0x0646, r18
     a0a:	20 e8       	ldi	r18, 0x80	; 128
     a0c:	20 93 45 06 	sts	0x0645, r18
     a10:	20 93 46 06 	sts	0x0646, r18
     a14:	9c 01       	movw	r18, r24
     a16:	24 e0       	ldi	r18, 0x04	; 4
     a18:	32 9f       	mul	r19, r18
     a1a:	21 2d       	mov	r18, r1
     a1c:	33 27       	eor	r19, r19
     a1e:	11 24       	eor	r1, r1
     a20:	20 fd       	sbrc	r18, 0
     a22:	71 c0       	rjmp	.+226    	; 0xb06 <turn_off+0x242>
     a24:	20 e2       	ldi	r18, 0x20	; 32
     a26:	20 93 46 06 	sts	0x0646, r18
     a2a:	20 e8       	ldi	r18, 0x80	; 128
     a2c:	20 93 45 06 	sts	0x0645, r18
     a30:	20 93 46 06 	sts	0x0646, r18
     a34:	97 ff       	sbrs	r25, 7
     a36:	63 c0       	rjmp	.+198    	; 0xafe <turn_off+0x23a>
     a38:	80 e2       	ldi	r24, 0x20	; 32
     a3a:	80 93 45 06 	sts	0x0645, r24
     a3e:	80 e8       	ldi	r24, 0x80	; 128
     a40:	80 93 45 06 	sts	0x0645, r24
     a44:	80 93 46 06 	sts	0x0646, r24
     a48:	82 e0       	ldi	r24, 0x02	; 2
     a4a:	80 93 46 06 	sts	0x0646, r24
     a4e:	80 93 45 06 	sts	0x0645, r24
     a52:	80 93 46 06 	sts	0x0646, r24
     a56:	08 95       	ret
     a58:	20 93 45 06 	sts	0x0645, r18
     a5c:	20 e8       	ldi	r18, 0x80	; 128
     a5e:	20 93 45 06 	sts	0x0645, r18
     a62:	20 93 46 06 	sts	0x0646, r18
     a66:	20 e2       	ldi	r18, 0x20	; 32
     a68:	81 ff       	sbrs	r24, 1
     a6a:	45 cf       	rjmp	.-374    	; 0x8f6 <turn_off+0x32>
     a6c:	20 93 45 06 	sts	0x0645, r18
     a70:	20 e8       	ldi	r18, 0x80	; 128
     a72:	20 93 45 06 	sts	0x0645, r18
     a76:	20 93 46 06 	sts	0x0646, r18
     a7a:	20 e2       	ldi	r18, 0x20	; 32
     a7c:	82 ff       	sbrs	r24, 2
     a7e:	45 cf       	rjmp	.-374    	; 0x90a <turn_off+0x46>
     a80:	20 93 45 06 	sts	0x0645, r18
     a84:	20 e8       	ldi	r18, 0x80	; 128
     a86:	20 93 45 06 	sts	0x0645, r18
     a8a:	20 93 46 06 	sts	0x0646, r18
     a8e:	20 e2       	ldi	r18, 0x20	; 32
     a90:	83 ff       	sbrs	r24, 3
     a92:	45 cf       	rjmp	.-374    	; 0x91e <turn_off+0x5a>
     a94:	20 93 45 06 	sts	0x0645, r18
     a98:	20 e8       	ldi	r18, 0x80	; 128
     a9a:	20 93 45 06 	sts	0x0645, r18
     a9e:	20 93 46 06 	sts	0x0646, r18
     aa2:	20 e2       	ldi	r18, 0x20	; 32
     aa4:	84 ff       	sbrs	r24, 4
     aa6:	45 cf       	rjmp	.-374    	; 0x932 <turn_off+0x6e>
     aa8:	20 93 45 06 	sts	0x0645, r18
     aac:	20 e8       	ldi	r18, 0x80	; 128
     aae:	20 93 45 06 	sts	0x0645, r18
     ab2:	20 93 46 06 	sts	0x0646, r18
     ab6:	20 e2       	ldi	r18, 0x20	; 32
     ab8:	85 ff       	sbrs	r24, 5
     aba:	45 cf       	rjmp	.-374    	; 0x946 <turn_off+0x82>
     abc:	20 93 45 06 	sts	0x0645, r18
     ac0:	20 e8       	ldi	r18, 0x80	; 128
     ac2:	20 93 45 06 	sts	0x0645, r18
     ac6:	20 93 46 06 	sts	0x0646, r18
     aca:	20 e2       	ldi	r18, 0x20	; 32
     acc:	86 ff       	sbrs	r24, 6
     ace:	45 cf       	rjmp	.-374    	; 0x95a <turn_off+0x96>
     ad0:	20 93 45 06 	sts	0x0645, r18
     ad4:	20 e8       	ldi	r18, 0x80	; 128
     ad6:	20 93 45 06 	sts	0x0645, r18
     ada:	20 93 46 06 	sts	0x0646, r18
     ade:	20 e2       	ldi	r18, 0x20	; 32
     ae0:	87 ff       	sbrs	r24, 7
     ae2:	45 cf       	rjmp	.-374    	; 0x96e <turn_off+0xaa>
     ae4:	20 93 45 06 	sts	0x0645, r18
     ae8:	20 e8       	ldi	r18, 0x80	; 128
     aea:	20 93 45 06 	sts	0x0645, r18
     aee:	20 93 46 06 	sts	0x0646, r18
     af2:	20 e2       	ldi	r18, 0x20	; 32
     af4:	90 ff       	sbrs	r25, 0
     af6:	45 cf       	rjmp	.-374    	; 0x982 <turn_off+0xbe>
     af8:	20 93 45 06 	sts	0x0645, r18
     afc:	44 cf       	rjmp	.-376    	; 0x986 <turn_off+0xc2>
     afe:	80 e2       	ldi	r24, 0x20	; 32
     b00:	80 93 46 06 	sts	0x0646, r24
     b04:	9c cf       	rjmp	.-200    	; 0xa3e <turn_off+0x17a>
     b06:	20 e2       	ldi	r18, 0x20	; 32
     b08:	20 93 45 06 	sts	0x0645, r18
     b0c:	8e cf       	rjmp	.-228    	; 0xa2a <turn_off+0x166>
     b0e:	20 e2       	ldi	r18, 0x20	; 32
     b10:	20 93 45 06 	sts	0x0645, r18
     b14:	7a cf       	rjmp	.-268    	; 0xa0a <turn_off+0x146>
     b16:	20 e2       	ldi	r18, 0x20	; 32
     b18:	20 93 45 06 	sts	0x0645, r18
     b1c:	68 cf       	rjmp	.-304    	; 0x9ee <turn_off+0x12a>
     b1e:	20 e2       	ldi	r18, 0x20	; 32
     b20:	20 93 45 06 	sts	0x0645, r18
     b24:	57 cf       	rjmp	.-338    	; 0x9d4 <turn_off+0x110>
     b26:	20 e2       	ldi	r18, 0x20	; 32
     b28:	20 93 45 06 	sts	0x0645, r18
     b2c:	45 cf       	rjmp	.-374    	; 0x9b8 <turn_off+0xf4>
     b2e:	20 e2       	ldi	r18, 0x20	; 32
     b30:	20 93 45 06 	sts	0x0645, r18
     b34:	34 cf       	rjmp	.-408    	; 0x99e <turn_off+0xda>

00000b36 <ioport_configure_port_pin>:
     b36:	fc 01       	movw	r30, r24
     b38:	26 2f       	mov	r18, r22
     b3a:	30 e0       	ldi	r19, 0x00	; 0
     b3c:	60 fd       	sbrc	r22, 0
     b3e:	50 8b       	std	Z+16, r21	; 0x10
     b40:	21 fd       	sbrc	r18, 1
     b42:	51 8b       	std	Z+17, r21	; 0x11
     b44:	22 fd       	sbrc	r18, 2
     b46:	52 8b       	std	Z+18, r21	; 0x12
     b48:	23 fd       	sbrc	r18, 3
     b4a:	53 8b       	std	Z+19, r21	; 0x13
     b4c:	24 fd       	sbrc	r18, 4
     b4e:	54 8b       	std	Z+20, r21	; 0x14
     b50:	25 fd       	sbrc	r18, 5
     b52:	55 8b       	std	Z+21, r21	; 0x15
     b54:	26 fd       	sbrc	r18, 6
     b56:	56 8b       	std	Z+22, r21	; 0x16
     b58:	22 0f       	add	r18, r18
     b5a:	23 2f       	mov	r18, r19
     b5c:	22 1f       	adc	r18, r18
     b5e:	33 0b       	sbc	r19, r19
     b60:	23 2b       	or	r18, r19
     b62:	09 f0       	breq	.+2      	; 0xb66 <ioport_configure_port_pin+0x30>
     b64:	57 8b       	std	Z+23, r21	; 0x17
     b66:	40 ff       	sbrs	r20, 0
     b68:	05 c0       	rjmp	.+10     	; 0xb74 <ioport_configure_port_pin+0x3e>
     b6a:	41 fd       	sbrc	r20, 1
     b6c:	05 c0       	rjmp	.+10     	; 0xb78 <ioport_configure_port_pin+0x42>
     b6e:	66 83       	std	Z+6, r22	; 0x06
     b70:	61 83       	std	Z+1, r22	; 0x01
     b72:	08 95       	ret
     b74:	62 83       	std	Z+2, r22	; 0x02
     b76:	08 95       	ret
     b78:	65 83       	std	Z+5, r22	; 0x05
     b7a:	61 83       	std	Z+1, r22	; 0x01
     b7c:	08 95       	ret

00000b7e <sysclk_init>:
     b7e:	47 e0       	ldi	r20, 0x07	; 7
     b80:	50 e0       	ldi	r21, 0x00	; 0
     b82:	6f ef       	ldi	r22, 0xFF	; 255
     b84:	70 e0       	ldi	r23, 0x00	; 0
     b86:	80 e7       	ldi	r24, 0x70	; 112
     b88:	90 e0       	ldi	r25, 0x00	; 0
     b8a:	4a c3       	rjmp	.+1684   	; 0x1220 <memset>

00000b8c <__vector_6>:
     b8c:	1f 92       	push	r1
     b8e:	0f 92       	push	r0
     b90:	0f b6       	in	r0, 0x3f	; 63
     b92:	0f 92       	push	r0
     b94:	11 24       	eor	r1, r1
     b96:	08 b6       	in	r0, 0x38	; 56
     b98:	0f 92       	push	r0
     b9a:	18 be       	out	0x38, r1	; 56
     b9c:	09 b6       	in	r0, 0x39	; 57
     b9e:	0f 92       	push	r0
     ba0:	19 be       	out	0x39, r1	; 57
     ba2:	0b b6       	in	r0, 0x3b	; 59
     ba4:	0f 92       	push	r0
     ba6:	1b be       	out	0x3b, r1	; 59
     ba8:	2f 93       	push	r18
     baa:	3f 93       	push	r19
     bac:	4f 93       	push	r20
     bae:	5f 93       	push	r21
     bb0:	6f 93       	push	r22
     bb2:	7f 93       	push	r23
     bb4:	8f 93       	push	r24
     bb6:	9f 93       	push	r25
     bb8:	af 93       	push	r26
     bba:	bf 93       	push	r27
     bbc:	ef 93       	push	r30
     bbe:	ff 93       	push	r31
     bc0:	80 91 04 01 	lds	r24, 0x0104
     bc4:	90 91 03 01 	lds	r25, 0x0103
     bc8:	29 2f       	mov	r18, r25
     bca:	21 71       	andi	r18, 0x11	; 17
     bcc:	02 2e       	mov	r0, r18
     bce:	00 0c       	add	r0, r0
     bd0:	33 0b       	sbc	r19, r19
     bd2:	35 95       	asr	r19
     bd4:	27 95       	ror	r18
     bd6:	35 95       	asr	r19
     bd8:	27 95       	ror	r18
     bda:	35 95       	asr	r19
     bdc:	27 95       	ror	r18
     bde:	35 95       	asr	r19
     be0:	27 95       	ror	r18
     be2:	23 2b       	or	r18, r19
     be4:	21 f1       	breq	.+72     	; 0xc2e <__vector_6+0xa2>
     be6:	84 e0       	ldi	r24, 0x04	; 4
     be8:	90 91 11 01 	lds	r25, 0x0111
     bec:	90 63       	ori	r25, 0x30	; 48
     bee:	90 93 11 01 	sts	0x0111, r25
     bf2:	e0 91 0d 20 	lds	r30, 0x200D
     bf6:	f0 91 0e 20 	lds	r31, 0x200E
     bfa:	30 97       	sbiw	r30, 0x00	; 0
     bfc:	09 f0       	breq	.+2      	; 0xc00 <__vector_6+0x74>
     bfe:	19 95       	eicall
     c00:	ff 91       	pop	r31
     c02:	ef 91       	pop	r30
     c04:	bf 91       	pop	r27
     c06:	af 91       	pop	r26
     c08:	9f 91       	pop	r25
     c0a:	8f 91       	pop	r24
     c0c:	7f 91       	pop	r23
     c0e:	6f 91       	pop	r22
     c10:	5f 91       	pop	r21
     c12:	4f 91       	pop	r20
     c14:	3f 91       	pop	r19
     c16:	2f 91       	pop	r18
     c18:	0f 90       	pop	r0
     c1a:	0b be       	out	0x3b, r0	; 59
     c1c:	0f 90       	pop	r0
     c1e:	09 be       	out	0x39, r0	; 57
     c20:	0f 90       	pop	r0
     c22:	08 be       	out	0x38, r0	; 56
     c24:	0f 90       	pop	r0
     c26:	0f be       	out	0x3f, r0	; 63
     c28:	0f 90       	pop	r0
     c2a:	1f 90       	pop	r1
     c2c:	18 95       	reti
     c2e:	90 ff       	sbrs	r25, 0
     c30:	02 c0       	rjmp	.+4      	; 0xc36 <__vector_6+0xaa>
     c32:	83 e0       	ldi	r24, 0x03	; 3
     c34:	d9 cf       	rjmp	.-78     	; 0xbe8 <__vector_6+0x5c>
     c36:	28 2f       	mov	r18, r24
     c38:	21 71       	andi	r18, 0x11	; 17
     c3a:	02 2e       	mov	r0, r18
     c3c:	00 0c       	add	r0, r0
     c3e:	33 0b       	sbc	r19, r19
     c40:	35 95       	asr	r19
     c42:	27 95       	ror	r18
     c44:	35 95       	asr	r19
     c46:	27 95       	ror	r18
     c48:	35 95       	asr	r19
     c4a:	27 95       	ror	r18
     c4c:	35 95       	asr	r19
     c4e:	27 95       	ror	r18
     c50:	23 2b       	or	r18, r19
     c52:	11 f0       	breq	.+4      	; 0xc58 <__vector_6+0xcc>
     c54:	82 e0       	ldi	r24, 0x02	; 2
     c56:	c8 cf       	rjmp	.-112    	; 0xbe8 <__vector_6+0x5c>
     c58:	81 70       	andi	r24, 0x01	; 1
     c5a:	c6 cf       	rjmp	.-116    	; 0xbe8 <__vector_6+0x5c>

00000c5c <__vector_7>:
     c5c:	1f 92       	push	r1
     c5e:	0f 92       	push	r0
     c60:	0f b6       	in	r0, 0x3f	; 63
     c62:	0f 92       	push	r0
     c64:	11 24       	eor	r1, r1
     c66:	08 b6       	in	r0, 0x38	; 56
     c68:	0f 92       	push	r0
     c6a:	18 be       	out	0x38, r1	; 56
     c6c:	09 b6       	in	r0, 0x39	; 57
     c6e:	0f 92       	push	r0
     c70:	19 be       	out	0x39, r1	; 57
     c72:	0b b6       	in	r0, 0x3b	; 59
     c74:	0f 92       	push	r0
     c76:	1b be       	out	0x3b, r1	; 59
     c78:	2f 93       	push	r18
     c7a:	3f 93       	push	r19
     c7c:	4f 93       	push	r20
     c7e:	5f 93       	push	r21
     c80:	6f 93       	push	r22
     c82:	7f 93       	push	r23
     c84:	8f 93       	push	r24
     c86:	9f 93       	push	r25
     c88:	af 93       	push	r26
     c8a:	bf 93       	push	r27
     c8c:	ef 93       	push	r30
     c8e:	ff 93       	push	r31
     c90:	20 91 04 01 	lds	r18, 0x0104
     c94:	80 91 03 01 	lds	r24, 0x0103
     c98:	82 72       	andi	r24, 0x22	; 34
     c9a:	08 2e       	mov	r0, r24
     c9c:	00 0c       	add	r0, r0
     c9e:	99 0b       	sbc	r25, r25
     ca0:	ac 01       	movw	r20, r24
     ca2:	55 95       	asr	r21
     ca4:	47 95       	ror	r20
     ca6:	55 95       	asr	r21
     ca8:	47 95       	ror	r20
     caa:	55 95       	asr	r21
     cac:	47 95       	ror	r20
     cae:	55 95       	asr	r21
     cb0:	47 95       	ror	r20
     cb2:	55 95       	asr	r21
     cb4:	47 95       	ror	r20
     cb6:	45 2b       	or	r20, r21
     cb8:	21 f1       	breq	.+72     	; 0xd02 <__vector_7+0xa6>
     cba:	84 e0       	ldi	r24, 0x04	; 4
     cbc:	90 91 21 01 	lds	r25, 0x0121
     cc0:	90 63       	ori	r25, 0x30	; 48
     cc2:	90 93 21 01 	sts	0x0121, r25
     cc6:	e0 91 0f 20 	lds	r30, 0x200F
     cca:	f0 91 10 20 	lds	r31, 0x2010
     cce:	30 97       	sbiw	r30, 0x00	; 0
     cd0:	09 f0       	breq	.+2      	; 0xcd4 <__vector_7+0x78>
     cd2:	19 95       	eicall
     cd4:	ff 91       	pop	r31
     cd6:	ef 91       	pop	r30
     cd8:	bf 91       	pop	r27
     cda:	af 91       	pop	r26
     cdc:	9f 91       	pop	r25
     cde:	8f 91       	pop	r24
     ce0:	7f 91       	pop	r23
     ce2:	6f 91       	pop	r22
     ce4:	5f 91       	pop	r21
     ce6:	4f 91       	pop	r20
     ce8:	3f 91       	pop	r19
     cea:	2f 91       	pop	r18
     cec:	0f 90       	pop	r0
     cee:	0b be       	out	0x3b, r0	; 59
     cf0:	0f 90       	pop	r0
     cf2:	09 be       	out	0x39, r0	; 57
     cf4:	0f 90       	pop	r0
     cf6:	08 be       	out	0x38, r0	; 56
     cf8:	0f 90       	pop	r0
     cfa:	0f be       	out	0x3f, r0	; 63
     cfc:	0f 90       	pop	r0
     cfe:	1f 90       	pop	r1
     d00:	18 95       	reti
     d02:	81 ff       	sbrs	r24, 1
     d04:	02 c0       	rjmp	.+4      	; 0xd0a <__vector_7+0xae>
     d06:	83 e0       	ldi	r24, 0x03	; 3
     d08:	d9 cf       	rjmp	.-78     	; 0xcbc <__vector_7+0x60>
     d0a:	82 2f       	mov	r24, r18
     d0c:	82 72       	andi	r24, 0x22	; 34
     d0e:	08 2e       	mov	r0, r24
     d10:	00 0c       	add	r0, r0
     d12:	99 0b       	sbc	r25, r25
     d14:	9c 01       	movw	r18, r24
     d16:	35 95       	asr	r19
     d18:	27 95       	ror	r18
     d1a:	35 95       	asr	r19
     d1c:	27 95       	ror	r18
     d1e:	35 95       	asr	r19
     d20:	27 95       	ror	r18
     d22:	35 95       	asr	r19
     d24:	27 95       	ror	r18
     d26:	35 95       	asr	r19
     d28:	27 95       	ror	r18
     d2a:	23 2b       	or	r18, r19
     d2c:	11 f0       	breq	.+4      	; 0xd32 <__vector_7+0xd6>
     d2e:	82 e0       	ldi	r24, 0x02	; 2
     d30:	c5 cf       	rjmp	.-118    	; 0xcbc <__vector_7+0x60>
     d32:	86 95       	lsr	r24
     d34:	81 70       	andi	r24, 0x01	; 1
     d36:	c2 cf       	rjmp	.-124    	; 0xcbc <__vector_7+0x60>

00000d38 <__vector_8>:
     d38:	1f 92       	push	r1
     d3a:	0f 92       	push	r0
     d3c:	0f b6       	in	r0, 0x3f	; 63
     d3e:	0f 92       	push	r0
     d40:	11 24       	eor	r1, r1
     d42:	08 b6       	in	r0, 0x38	; 56
     d44:	0f 92       	push	r0
     d46:	18 be       	out	0x38, r1	; 56
     d48:	09 b6       	in	r0, 0x39	; 57
     d4a:	0f 92       	push	r0
     d4c:	19 be       	out	0x39, r1	; 57
     d4e:	0b b6       	in	r0, 0x3b	; 59
     d50:	0f 92       	push	r0
     d52:	1b be       	out	0x3b, r1	; 59
     d54:	2f 93       	push	r18
     d56:	3f 93       	push	r19
     d58:	4f 93       	push	r20
     d5a:	5f 93       	push	r21
     d5c:	6f 93       	push	r22
     d5e:	7f 93       	push	r23
     d60:	8f 93       	push	r24
     d62:	9f 93       	push	r25
     d64:	af 93       	push	r26
     d66:	bf 93       	push	r27
     d68:	ef 93       	push	r30
     d6a:	ff 93       	push	r31
     d6c:	20 91 04 01 	lds	r18, 0x0104
     d70:	80 91 03 01 	lds	r24, 0x0103
     d74:	84 74       	andi	r24, 0x44	; 68
     d76:	08 2e       	mov	r0, r24
     d78:	00 0c       	add	r0, r0
     d7a:	99 0b       	sbc	r25, r25
     d7c:	ac 01       	movw	r20, r24
     d7e:	04 2e       	mov	r0, r20
     d80:	45 2f       	mov	r20, r21
     d82:	00 0c       	add	r0, r0
     d84:	44 1f       	adc	r20, r20
     d86:	55 0b       	sbc	r21, r21
     d88:	00 0c       	add	r0, r0
     d8a:	44 1f       	adc	r20, r20
     d8c:	55 1f       	adc	r21, r21
     d8e:	45 2b       	or	r20, r21
     d90:	21 f1       	breq	.+72     	; 0xdda <__vector_8+0xa2>
     d92:	84 e0       	ldi	r24, 0x04	; 4
     d94:	90 91 31 01 	lds	r25, 0x0131
     d98:	90 63       	ori	r25, 0x30	; 48
     d9a:	90 93 31 01 	sts	0x0131, r25
     d9e:	e0 91 11 20 	lds	r30, 0x2011
     da2:	f0 91 12 20 	lds	r31, 0x2012
     da6:	30 97       	sbiw	r30, 0x00	; 0
     da8:	09 f0       	breq	.+2      	; 0xdac <__vector_8+0x74>
     daa:	19 95       	eicall
     dac:	ff 91       	pop	r31
     dae:	ef 91       	pop	r30
     db0:	bf 91       	pop	r27
     db2:	af 91       	pop	r26
     db4:	9f 91       	pop	r25
     db6:	8f 91       	pop	r24
     db8:	7f 91       	pop	r23
     dba:	6f 91       	pop	r22
     dbc:	5f 91       	pop	r21
     dbe:	4f 91       	pop	r20
     dc0:	3f 91       	pop	r19
     dc2:	2f 91       	pop	r18
     dc4:	0f 90       	pop	r0
     dc6:	0b be       	out	0x3b, r0	; 59
     dc8:	0f 90       	pop	r0
     dca:	09 be       	out	0x39, r0	; 57
     dcc:	0f 90       	pop	r0
     dce:	08 be       	out	0x38, r0	; 56
     dd0:	0f 90       	pop	r0
     dd2:	0f be       	out	0x3f, r0	; 63
     dd4:	0f 90       	pop	r0
     dd6:	1f 90       	pop	r1
     dd8:	18 95       	reti
     dda:	82 ff       	sbrs	r24, 2
     ddc:	02 c0       	rjmp	.+4      	; 0xde2 <__vector_8+0xaa>
     dde:	83 e0       	ldi	r24, 0x03	; 3
     de0:	d9 cf       	rjmp	.-78     	; 0xd94 <__vector_8+0x5c>
     de2:	82 2f       	mov	r24, r18
     de4:	84 74       	andi	r24, 0x44	; 68
     de6:	08 2e       	mov	r0, r24
     de8:	00 0c       	add	r0, r0
     dea:	99 0b       	sbc	r25, r25
     dec:	9c 01       	movw	r18, r24
     dee:	02 2e       	mov	r0, r18
     df0:	23 2f       	mov	r18, r19
     df2:	00 0c       	add	r0, r0
     df4:	22 1f       	adc	r18, r18
     df6:	33 0b       	sbc	r19, r19
     df8:	00 0c       	add	r0, r0
     dfa:	22 1f       	adc	r18, r18
     dfc:	33 1f       	adc	r19, r19
     dfe:	23 2b       	or	r18, r19
     e00:	11 f0       	breq	.+4      	; 0xe06 <__vector_8+0xce>
     e02:	82 e0       	ldi	r24, 0x02	; 2
     e04:	c7 cf       	rjmp	.-114    	; 0xd94 <__vector_8+0x5c>
     e06:	82 fb       	bst	r24, 2
     e08:	88 27       	eor	r24, r24
     e0a:	80 f9       	bld	r24, 0
     e0c:	c3 cf       	rjmp	.-122    	; 0xd94 <__vector_8+0x5c>

00000e0e <__vector_9>:
     e0e:	1f 92       	push	r1
     e10:	0f 92       	push	r0
     e12:	0f b6       	in	r0, 0x3f	; 63
     e14:	0f 92       	push	r0
     e16:	11 24       	eor	r1, r1
     e18:	08 b6       	in	r0, 0x38	; 56
     e1a:	0f 92       	push	r0
     e1c:	18 be       	out	0x38, r1	; 56
     e1e:	09 b6       	in	r0, 0x39	; 57
     e20:	0f 92       	push	r0
     e22:	19 be       	out	0x39, r1	; 57
     e24:	0b b6       	in	r0, 0x3b	; 59
     e26:	0f 92       	push	r0
     e28:	1b be       	out	0x3b, r1	; 59
     e2a:	2f 93       	push	r18
     e2c:	3f 93       	push	r19
     e2e:	4f 93       	push	r20
     e30:	5f 93       	push	r21
     e32:	6f 93       	push	r22
     e34:	7f 93       	push	r23
     e36:	8f 93       	push	r24
     e38:	9f 93       	push	r25
     e3a:	af 93       	push	r26
     e3c:	bf 93       	push	r27
     e3e:	ef 93       	push	r30
     e40:	ff 93       	push	r31
     e42:	20 91 04 01 	lds	r18, 0x0104
     e46:	80 91 03 01 	lds	r24, 0x0103
     e4a:	88 78       	andi	r24, 0x88	; 136
     e4c:	90 e0       	ldi	r25, 0x00	; 0
     e4e:	ac 01       	movw	r20, r24
     e50:	44 0f       	add	r20, r20
     e52:	45 2f       	mov	r20, r21
     e54:	44 1f       	adc	r20, r20
     e56:	55 0b       	sbc	r21, r21
     e58:	45 2b       	or	r20, r21
     e5a:	21 f1       	breq	.+72     	; 0xea4 <__vector_9+0x96>
     e5c:	84 e0       	ldi	r24, 0x04	; 4
     e5e:	90 91 41 01 	lds	r25, 0x0141
     e62:	90 63       	ori	r25, 0x30	; 48
     e64:	90 93 41 01 	sts	0x0141, r25
     e68:	e0 91 13 20 	lds	r30, 0x2013
     e6c:	f0 91 14 20 	lds	r31, 0x2014
     e70:	30 97       	sbiw	r30, 0x00	; 0
     e72:	09 f0       	breq	.+2      	; 0xe76 <__vector_9+0x68>
     e74:	19 95       	eicall
     e76:	ff 91       	pop	r31
     e78:	ef 91       	pop	r30
     e7a:	bf 91       	pop	r27
     e7c:	af 91       	pop	r26
     e7e:	9f 91       	pop	r25
     e80:	8f 91       	pop	r24
     e82:	7f 91       	pop	r23
     e84:	6f 91       	pop	r22
     e86:	5f 91       	pop	r21
     e88:	4f 91       	pop	r20
     e8a:	3f 91       	pop	r19
     e8c:	2f 91       	pop	r18
     e8e:	0f 90       	pop	r0
     e90:	0b be       	out	0x3b, r0	; 59
     e92:	0f 90       	pop	r0
     e94:	09 be       	out	0x39, r0	; 57
     e96:	0f 90       	pop	r0
     e98:	08 be       	out	0x38, r0	; 56
     e9a:	0f 90       	pop	r0
     e9c:	0f be       	out	0x3f, r0	; 63
     e9e:	0f 90       	pop	r0
     ea0:	1f 90       	pop	r1
     ea2:	18 95       	reti
     ea4:	83 ff       	sbrs	r24, 3
     ea6:	02 c0       	rjmp	.+4      	; 0xeac <__vector_9+0x9e>
     ea8:	83 e0       	ldi	r24, 0x03	; 3
     eaa:	d9 cf       	rjmp	.-78     	; 0xe5e <__vector_9+0x50>
     eac:	28 78       	andi	r18, 0x88	; 136
     eae:	82 2f       	mov	r24, r18
     eb0:	90 e0       	ldi	r25, 0x00	; 0
     eb2:	9c 01       	movw	r18, r24
     eb4:	22 0f       	add	r18, r18
     eb6:	23 2f       	mov	r18, r19
     eb8:	22 1f       	adc	r18, r18
     eba:	33 0b       	sbc	r19, r19
     ebc:	23 2b       	or	r18, r19
     ebe:	11 f0       	breq	.+4      	; 0xec4 <__vector_9+0xb6>
     ec0:	82 e0       	ldi	r24, 0x02	; 2
     ec2:	cd cf       	rjmp	.-102    	; 0xe5e <__vector_9+0x50>
     ec4:	83 fb       	bst	r24, 3
     ec6:	88 27       	eor	r24, r24
     ec8:	80 f9       	bld	r24, 0
     eca:	c9 cf       	rjmp	.-110    	; 0xe5e <__vector_9+0x50>

00000ecc <__vector_10>:
     ecc:	1f 92       	push	r1
     ece:	0f 92       	push	r0
     ed0:	0f b6       	in	r0, 0x3f	; 63
     ed2:	0f 92       	push	r0
     ed4:	11 24       	eor	r1, r1
     ed6:	08 b6       	in	r0, 0x38	; 56
     ed8:	0f 92       	push	r0
     eda:	18 be       	out	0x38, r1	; 56
     edc:	0b b6       	in	r0, 0x3b	; 59
     ede:	0f 92       	push	r0
     ee0:	1b be       	out	0x3b, r1	; 59
     ee2:	8f 93       	push	r24
     ee4:	9f 93       	push	r25
     ee6:	ef 93       	push	r30
     ee8:	ff 93       	push	r31
     eea:	e5 e1       	ldi	r30, 0x15	; 21
     eec:	f0 e2       	ldi	r31, 0x20	; 32
     eee:	80 81       	ld	r24, Z
     ef0:	91 81       	ldd	r25, Z+1	; 0x01
     ef2:	01 96       	adiw	r24, 0x01	; 1
     ef4:	80 83       	st	Z, r24
     ef6:	91 83       	std	Z+1, r25	; 0x01
     ef8:	ff 91       	pop	r31
     efa:	ef 91       	pop	r30
     efc:	9f 91       	pop	r25
     efe:	8f 91       	pop	r24
     f00:	0f 90       	pop	r0
     f02:	0b be       	out	0x3b, r0	; 59
     f04:	0f 90       	pop	r0
     f06:	08 be       	out	0x38, r0	; 56
     f08:	0f 90       	pop	r0
     f0a:	0f be       	out	0x3f, r0	; 63
     f0c:	0f 90       	pop	r0
     f0e:	1f 90       	pop	r1
     f10:	18 95       	reti

00000f12 <__vector_11>:
     f12:	1f 92       	push	r1
     f14:	0f 92       	push	r0
     f16:	0f b6       	in	r0, 0x3f	; 63
     f18:	0f 92       	push	r0
     f1a:	11 24       	eor	r1, r1
     f1c:	08 b6       	in	r0, 0x38	; 56
     f1e:	0f 92       	push	r0
     f20:	18 be       	out	0x38, r1	; 56
     f22:	09 b6       	in	r0, 0x39	; 57
     f24:	0f 92       	push	r0
     f26:	19 be       	out	0x39, r1	; 57
     f28:	0b b6       	in	r0, 0x3b	; 59
     f2a:	0f 92       	push	r0
     f2c:	1b be       	out	0x3b, r1	; 59
     f2e:	0f 93       	push	r16
     f30:	1f 93       	push	r17
     f32:	2f 93       	push	r18
     f34:	3f 93       	push	r19
     f36:	4f 93       	push	r20
     f38:	5f 93       	push	r21
     f3a:	6f 93       	push	r22
     f3c:	7f 93       	push	r23
     f3e:	8f 93       	push	r24
     f40:	9f 93       	push	r25
     f42:	af 93       	push	r26
     f44:	bf 93       	push	r27
     f46:	ef 93       	push	r30
     f48:	ff 93       	push	r31
     f4a:	40 91 15 20 	lds	r20, 0x2015
     f4e:	50 91 16 20 	lds	r21, 0x2016
     f52:	80 91 17 20 	lds	r24, 0x2017
     f56:	90 91 18 20 	lds	r25, 0x2018
     f5a:	48 17       	cp	r20, r24
     f5c:	59 07       	cpc	r21, r25
     f5e:	78 f1       	brcs	.+94     	; 0xfbe <__vector_11+0xac>
     f60:	21 e0       	ldi	r18, 0x01	; 1
     f62:	20 93 02 04 	sts	0x0402, r18
     f66:	e0 91 1b 20 	lds	r30, 0x201B
     f6a:	f0 91 1c 20 	lds	r31, 0x201C
     f6e:	30 97       	sbiw	r30, 0x00	; 0
     f70:	31 f1       	breq	.+76     	; 0xfbe <__vector_11+0xac>
     f72:	00 91 08 04 	lds	r16, 0x0408
     f76:	10 91 09 04 	lds	r17, 0x0409
     f7a:	60 e0       	ldi	r22, 0x00	; 0
     f7c:	70 e0       	ldi	r23, 0x00	; 0
     f7e:	ba 01       	movw	r22, r20
     f80:	55 27       	eor	r21, r21
     f82:	44 27       	eor	r20, r20
     f84:	20 e0       	ldi	r18, 0x00	; 0
     f86:	30 e0       	ldi	r19, 0x00	; 0
     f88:	40 2b       	or	r20, r16
     f8a:	51 2b       	or	r21, r17
     f8c:	62 2b       	or	r22, r18
     f8e:	73 2b       	or	r23, r19
     f90:	a0 e0       	ldi	r26, 0x00	; 0
     f92:	b0 e0       	ldi	r27, 0x00	; 0
     f94:	dc 01       	movw	r26, r24
     f96:	99 27       	eor	r25, r25
     f98:	88 27       	eor	r24, r24
     f9a:	00 91 19 20 	lds	r16, 0x2019
     f9e:	10 91 1a 20 	lds	r17, 0x201A
     fa2:	20 e0       	ldi	r18, 0x00	; 0
     fa4:	30 e0       	ldi	r19, 0x00	; 0
     fa6:	80 2b       	or	r24, r16
     fa8:	91 2b       	or	r25, r17
     faa:	a2 2b       	or	r26, r18
     fac:	b3 2b       	or	r27, r19
     fae:	84 17       	cp	r24, r20
     fb0:	95 07       	cpc	r25, r21
     fb2:	a6 07       	cpc	r26, r22
     fb4:	b7 07       	cpc	r27, r23
     fb6:	e0 f4       	brcc	.+56     	; 0xff0 <__vector_11+0xde>
     fb8:	cb 01       	movw	r24, r22
     fba:	ba 01       	movw	r22, r20
     fbc:	19 95       	eicall
     fbe:	ff 91       	pop	r31
     fc0:	ef 91       	pop	r30
     fc2:	bf 91       	pop	r27
     fc4:	af 91       	pop	r26
     fc6:	9f 91       	pop	r25
     fc8:	8f 91       	pop	r24
     fca:	7f 91       	pop	r23
     fcc:	6f 91       	pop	r22
     fce:	5f 91       	pop	r21
     fd0:	4f 91       	pop	r20
     fd2:	3f 91       	pop	r19
     fd4:	2f 91       	pop	r18
     fd6:	1f 91       	pop	r17
     fd8:	0f 91       	pop	r16
     fda:	0f 90       	pop	r0
     fdc:	0b be       	out	0x3b, r0	; 59
     fde:	0f 90       	pop	r0
     fe0:	09 be       	out	0x39, r0	; 57
     fe2:	0f 90       	pop	r0
     fe4:	08 be       	out	0x38, r0	; 56
     fe6:	0f 90       	pop	r0
     fe8:	0f be       	out	0x3f, r0	; 63
     fea:	0f 90       	pop	r0
     fec:	1f 90       	pop	r1
     fee:	18 95       	reti
     ff0:	ac 01       	movw	r20, r24
     ff2:	bd 01       	movw	r22, r26
     ff4:	4f 5f       	subi	r20, 0xFF	; 255
     ff6:	5f 4f       	sbci	r21, 0xFF	; 255
     ff8:	6f 4f       	sbci	r22, 0xFF	; 255
     ffa:	7f 4f       	sbci	r23, 0xFF	; 255
     ffc:	dd cf       	rjmp	.-70     	; 0xfb8 <__vector_11+0xa6>

00000ffe <pinInit>:
     ffe:	40 e0       	ldi	r20, 0x00	; 0
    1000:	58 e1       	ldi	r21, 0x18	; 24
    1002:	64 e0       	ldi	r22, 0x04	; 4
    1004:	80 e0       	ldi	r24, 0x00	; 0
    1006:	96 e0       	ldi	r25, 0x06	; 6
    1008:	96 dd       	rcall	.-1236   	; 0xb36 <ioport_configure_port_pin>
    100a:	40 e0       	ldi	r20, 0x00	; 0
    100c:	58 e1       	ldi	r21, 0x18	; 24
    100e:	68 e0       	ldi	r22, 0x08	; 8
    1010:	80 e0       	ldi	r24, 0x00	; 0
    1012:	96 e0       	ldi	r25, 0x06	; 6
    1014:	90 dd       	rcall	.-1248   	; 0xb36 <ioport_configure_port_pin>
    1016:	40 e0       	ldi	r20, 0x00	; 0
    1018:	50 e0       	ldi	r21, 0x00	; 0
    101a:	60 e1       	ldi	r22, 0x10	; 16
    101c:	80 e0       	ldi	r24, 0x00	; 0
    101e:	96 e0       	ldi	r25, 0x06	; 6
    1020:	8a dd       	rcall	.-1260   	; 0xb36 <ioport_configure_port_pin>
    1022:	40 e0       	ldi	r20, 0x00	; 0
    1024:	50 e0       	ldi	r21, 0x00	; 0
    1026:	60 e2       	ldi	r22, 0x20	; 32
    1028:	80 e8       	ldi	r24, 0x80	; 128
    102a:	96 e0       	ldi	r25, 0x06	; 6
    102c:	84 dd       	rcall	.-1272   	; 0xb36 <ioport_configure_port_pin>
    102e:	40 e0       	ldi	r20, 0x00	; 0
    1030:	50 e0       	ldi	r21, 0x00	; 0
    1032:	62 e0       	ldi	r22, 0x02	; 2
    1034:	80 e2       	ldi	r24, 0x20	; 32
    1036:	96 e0       	ldi	r25, 0x06	; 6
    1038:	7e dd       	rcall	.-1284   	; 0xb36 <ioport_configure_port_pin>
    103a:	43 e0       	ldi	r20, 0x03	; 3
    103c:	50 e0       	ldi	r21, 0x00	; 0
    103e:	61 e0       	ldi	r22, 0x01	; 1
    1040:	80 e4       	ldi	r24, 0x40	; 64
    1042:	96 e0       	ldi	r25, 0x06	; 6
    1044:	78 dd       	rcall	.-1296   	; 0xb36 <ioport_configure_port_pin>
    1046:	41 e0       	ldi	r20, 0x01	; 1
    1048:	50 e0       	ldi	r21, 0x00	; 0
    104a:	62 e0       	ldi	r22, 0x02	; 2
    104c:	80 e4       	ldi	r24, 0x40	; 64
    104e:	96 e0       	ldi	r25, 0x06	; 6
    1050:	72 dd       	rcall	.-1308   	; 0xb36 <ioport_configure_port_pin>
    1052:	40 e0       	ldi	r20, 0x00	; 0
    1054:	50 e0       	ldi	r21, 0x00	; 0
    1056:	64 e0       	ldi	r22, 0x04	; 4
    1058:	80 e4       	ldi	r24, 0x40	; 64
    105a:	96 e0       	ldi	r25, 0x06	; 6
    105c:	6c dd       	rcall	.-1320   	; 0xb36 <ioport_configure_port_pin>
    105e:	40 e0       	ldi	r20, 0x00	; 0
    1060:	50 e0       	ldi	r21, 0x00	; 0
    1062:	68 e0       	ldi	r22, 0x08	; 8
    1064:	80 e4       	ldi	r24, 0x40	; 64
    1066:	96 e0       	ldi	r25, 0x06	; 6
    1068:	66 dd       	rcall	.-1332   	; 0xb36 <ioport_configure_port_pin>
    106a:	43 e0       	ldi	r20, 0x03	; 3
    106c:	50 e0       	ldi	r21, 0x00	; 0
    106e:	60 e1       	ldi	r22, 0x10	; 16
    1070:	80 e4       	ldi	r24, 0x40	; 64
    1072:	96 e0       	ldi	r25, 0x06	; 6
    1074:	60 dd       	rcall	.-1344   	; 0xb36 <ioport_configure_port_pin>
    1076:	41 e0       	ldi	r20, 0x01	; 1
    1078:	50 e0       	ldi	r21, 0x00	; 0
    107a:	60 e2       	ldi	r22, 0x20	; 32
    107c:	80 e4       	ldi	r24, 0x40	; 64
    107e:	96 e0       	ldi	r25, 0x06	; 6
    1080:	5a dd       	rcall	.-1356   	; 0xb36 <ioport_configure_port_pin>
    1082:	40 e0       	ldi	r20, 0x00	; 0
    1084:	50 e0       	ldi	r21, 0x00	; 0
    1086:	60 e4       	ldi	r22, 0x40	; 64
    1088:	80 e4       	ldi	r24, 0x40	; 64
    108a:	96 e0       	ldi	r25, 0x06	; 6
    108c:	54 dd       	rcall	.-1368   	; 0xb36 <ioport_configure_port_pin>
    108e:	41 e0       	ldi	r20, 0x01	; 1
    1090:	50 e0       	ldi	r21, 0x00	; 0
    1092:	60 e8       	ldi	r22, 0x80	; 128
    1094:	80 e4       	ldi	r24, 0x40	; 64
    1096:	96 e0       	ldi	r25, 0x06	; 6
    1098:	4e dd       	rcall	.-1380   	; 0xb36 <ioport_configure_port_pin>
    109a:	43 e0       	ldi	r20, 0x03	; 3
    109c:	50 e0       	ldi	r21, 0x00	; 0
    109e:	61 e0       	ldi	r22, 0x01	; 1
    10a0:	80 e8       	ldi	r24, 0x80	; 128
    10a2:	96 e0       	ldi	r25, 0x06	; 6
    10a4:	48 dd       	rcall	.-1392   	; 0xb36 <ioport_configure_port_pin>
    10a6:	41 e0       	ldi	r20, 0x01	; 1
    10a8:	50 e0       	ldi	r21, 0x00	; 0
    10aa:	62 e0       	ldi	r22, 0x02	; 2
    10ac:	80 e8       	ldi	r24, 0x80	; 128
    10ae:	96 e0       	ldi	r25, 0x06	; 6
    10b0:	42 dd       	rcall	.-1404   	; 0xb36 <ioport_configure_port_pin>
    10b2:	40 e0       	ldi	r20, 0x00	; 0
    10b4:	50 e0       	ldi	r21, 0x00	; 0
    10b6:	64 e0       	ldi	r22, 0x04	; 4
    10b8:	80 e8       	ldi	r24, 0x80	; 128
    10ba:	96 e0       	ldi	r25, 0x06	; 6
    10bc:	3c dd       	rcall	.-1416   	; 0xb36 <ioport_configure_port_pin>
    10be:	43 e0       	ldi	r20, 0x03	; 3
    10c0:	50 e0       	ldi	r21, 0x00	; 0
    10c2:	68 e0       	ldi	r22, 0x08	; 8
    10c4:	80 e8       	ldi	r24, 0x80	; 128
    10c6:	96 e0       	ldi	r25, 0x06	; 6
    10c8:	36 dd       	rcall	.-1428   	; 0xb36 <ioport_configure_port_pin>
    10ca:	43 e0       	ldi	r20, 0x03	; 3
    10cc:	50 e0       	ldi	r21, 0x00	; 0
    10ce:	61 e0       	ldi	r22, 0x01	; 1
    10d0:	80 e6       	ldi	r24, 0x60	; 96
    10d2:	96 e0       	ldi	r25, 0x06	; 6
    10d4:	30 dd       	rcall	.-1440   	; 0xb36 <ioport_configure_port_pin>
    10d6:	43 e0       	ldi	r20, 0x03	; 3
    10d8:	50 e0       	ldi	r21, 0x00	; 0
    10da:	62 e0       	ldi	r22, 0x02	; 2
    10dc:	80 e6       	ldi	r24, 0x60	; 96
    10de:	96 e0       	ldi	r25, 0x06	; 6
    10e0:	2a dd       	rcall	.-1452   	; 0xb36 <ioport_configure_port_pin>
    10e2:	43 e0       	ldi	r20, 0x03	; 3
    10e4:	50 e0       	ldi	r21, 0x00	; 0
    10e6:	64 e0       	ldi	r22, 0x04	; 4
    10e8:	80 e8       	ldi	r24, 0x80	; 128
    10ea:	96 e0       	ldi	r25, 0x06	; 6
    10ec:	24 dd       	rcall	.-1464   	; 0xb36 <ioport_configure_port_pin>
    10ee:	40 e0       	ldi	r20, 0x00	; 0
    10f0:	50 e0       	ldi	r21, 0x00	; 0
    10f2:	68 e0       	ldi	r22, 0x08	; 8
    10f4:	80 e8       	ldi	r24, 0x80	; 128
    10f6:	96 e0       	ldi	r25, 0x06	; 6
    10f8:	1e dd       	rcall	.-1476   	; 0xb36 <ioport_configure_port_pin>
    10fa:	43 e0       	ldi	r20, 0x03	; 3
    10fc:	50 e0       	ldi	r21, 0x00	; 0
    10fe:	60 e1       	ldi	r22, 0x10	; 16
    1100:	80 e6       	ldi	r24, 0x60	; 96
    1102:	96 e0       	ldi	r25, 0x06	; 6
    1104:	18 dd       	rcall	.-1488   	; 0xb36 <ioport_configure_port_pin>
    1106:	40 e0       	ldi	r20, 0x00	; 0
    1108:	50 e0       	ldi	r21, 0x00	; 0
    110a:	60 e4       	ldi	r22, 0x40	; 64
    110c:	80 e6       	ldi	r24, 0x60	; 96
    110e:	96 e0       	ldi	r25, 0x06	; 6
    1110:	12 dd       	rcall	.-1500   	; 0xb36 <ioport_configure_port_pin>
    1112:	43 e0       	ldi	r20, 0x03	; 3
    1114:	50 e0       	ldi	r21, 0x00	; 0
    1116:	60 e8       	ldi	r22, 0x80	; 128
    1118:	80 e6       	ldi	r24, 0x60	; 96
    111a:	96 e0       	ldi	r25, 0x06	; 6
    111c:	0c dd       	rcall	.-1512   	; 0xb36 <ioport_configure_port_pin>
    111e:	41 e0       	ldi	r20, 0x01	; 1
    1120:	50 e0       	ldi	r21, 0x00	; 0
    1122:	61 e0       	ldi	r22, 0x01	; 1
    1124:	80 e2       	ldi	r24, 0x20	; 32
    1126:	96 e0       	ldi	r25, 0x06	; 6
    1128:	06 dd       	rcall	.-1524   	; 0xb36 <ioport_configure_port_pin>
    112a:	41 e0       	ldi	r20, 0x01	; 1
    112c:	50 e0       	ldi	r21, 0x00	; 0
    112e:	60 e4       	ldi	r22, 0x40	; 64
    1130:	80 e0       	ldi	r24, 0x00	; 0
    1132:	96 e0       	ldi	r25, 0x06	; 6
    1134:	00 dd       	rcall	.-1536   	; 0xb36 <ioport_configure_port_pin>
    1136:	41 e0       	ldi	r20, 0x01	; 1
    1138:	50 e0       	ldi	r21, 0x00	; 0
    113a:	60 e8       	ldi	r22, 0x80	; 128
    113c:	80 e0       	ldi	r24, 0x00	; 0
    113e:	96 e0       	ldi	r25, 0x06	; 6
    1140:	fa dc       	rcall	.-1548   	; 0xb36 <ioport_configure_port_pin>
    1142:	40 e0       	ldi	r20, 0x00	; 0
    1144:	50 e0       	ldi	r21, 0x00	; 0
    1146:	61 e0       	ldi	r22, 0x01	; 1
    1148:	80 e0       	ldi	r24, 0x00	; 0
    114a:	96 e0       	ldi	r25, 0x06	; 6
    114c:	f4 dc       	rcall	.-1560   	; 0xb36 <ioport_configure_port_pin>
    114e:	40 e0       	ldi	r20, 0x00	; 0
    1150:	58 e1       	ldi	r21, 0x18	; 24
    1152:	60 e2       	ldi	r22, 0x20	; 32
    1154:	80 e6       	ldi	r24, 0x60	; 96
    1156:	96 e0       	ldi	r25, 0x06	; 6
    1158:	ee dc       	rcall	.-1572   	; 0xb36 <ioport_configure_port_pin>
    115a:	41 e0       	ldi	r20, 0x01	; 1
    115c:	50 e0       	ldi	r21, 0x00	; 0
    115e:	64 e0       	ldi	r22, 0x04	; 4
    1160:	80 e2       	ldi	r24, 0x20	; 32
    1162:	96 e0       	ldi	r25, 0x06	; 6
    1164:	e8 dc       	rcall	.-1584   	; 0xb36 <ioport_configure_port_pin>
    1166:	41 e0       	ldi	r20, 0x01	; 1
    1168:	50 e0       	ldi	r21, 0x00	; 0
    116a:	68 e0       	ldi	r22, 0x08	; 8
    116c:	80 e2       	ldi	r24, 0x20	; 32
    116e:	96 e0       	ldi	r25, 0x06	; 6
    1170:	e2 dc       	rcall	.-1596   	; 0xb36 <ioport_configure_port_pin>
    1172:	41 e0       	ldi	r20, 0x01	; 1
    1174:	50 e0       	ldi	r21, 0x00	; 0
    1176:	62 e0       	ldi	r22, 0x02	; 2
    1178:	80 e0       	ldi	r24, 0x00	; 0
    117a:	96 e0       	ldi	r25, 0x06	; 6
    117c:	dc cc       	rjmp	.-1608   	; 0xb36 <ioport_configure_port_pin>

0000117e <board_init>:
    117e:	3f df       	rcall	.-386    	; 0xffe <pinInit>
    1180:	24 da       	rcall	.-3000   	; 0x5ca <shiftRegisterInit>
    1182:	81 e0       	ldi	r24, 0x01	; 1
    1184:	14 ca       	rjmp	.-3032   	; 0x5ae <canbusSerialRouting>

00001186 <main>:
    1186:	fb dc       	rcall	.-1546   	; 0xb7e <sysclk_init>
    1188:	fa df       	rcall	.-12     	; 0x117e <board_init>
    118a:	8a e6       	ldi	r24, 0x6A	; 106
    118c:	94 e0       	ldi	r25, 0x04	; 4
    118e:	a1 e0       	ldi	r26, 0x01	; 1
    1190:	b0 e0       	ldi	r27, 0x00	; 0
    1192:	01 97       	sbiw	r24, 0x01	; 1
    1194:	a1 09       	sbc	r26, r1
    1196:	b1 09       	sbc	r27, r1
    1198:	e1 f7       	brne	.-8      	; 0x1192 <main+0xc>
    119a:	88 e0       	ldi	r24, 0x08	; 8
    119c:	9c e0       	ldi	r25, 0x0C	; 12
    119e:	5b da       	rcall	.-2890   	; 0x656 <turn_on>
    11a0:	8a e6       	ldi	r24, 0x6A	; 106
    11a2:	94 e0       	ldi	r25, 0x04	; 4
    11a4:	a1 e0       	ldi	r26, 0x01	; 1
    11a6:	b0 e0       	ldi	r27, 0x00	; 0
    11a8:	01 97       	sbiw	r24, 0x01	; 1
    11aa:	a1 09       	sbc	r26, r1
    11ac:	b1 09       	sbc	r27, r1
    11ae:	e1 f7       	brne	.-8      	; 0x11a8 <main+0x22>
    11b0:	88 e0       	ldi	r24, 0x08	; 8
    11b2:	80 93 25 06 	sts	0x0625, r24
    11b6:	84 e7       	ldi	r24, 0x74	; 116
    11b8:	90 e0       	ldi	r25, 0x00	; 0
    11ba:	4d da       	rcall	.-2918   	; 0x656 <turn_on>
    11bc:	80 e0       	ldi	r24, 0x00	; 0
    11be:	90 e0       	ldi	r25, 0x00	; 0
    11c0:	01 96       	adiw	r24, 0x01	; 1
    11c2:	85 33       	cpi	r24, 0x35	; 53
    11c4:	22 e8       	ldi	r18, 0x82	; 130
    11c6:	92 07       	cpc	r25, r18
    11c8:	d9 f7       	brne	.-10     	; 0x11c0 <main+0x3a>
    11ca:	80 e1       	ldi	r24, 0x10	; 16
    11cc:	90 e0       	ldi	r25, 0x00	; 0
    11ce:	7a db       	rcall	.-2316   	; 0x8c4 <turn_off>
    11d0:	11 e0       	ldi	r17, 0x01	; 1
    11d2:	d0 e4       	ldi	r29, 0x40	; 64
    11d4:	c0 e8       	ldi	r28, 0x80	; 128
    11d6:	10 c0       	rjmp	.+32     	; 0x11f8 <main+0x72>
    11d8:	10 93 25 06 	sts	0x0625, r17
    11dc:	dc d9       	rcall	.-3144   	; 0x596 <toggleChargePump>
    11de:	80 91 68 06 	lds	r24, 0x0668
    11e2:	81 ff       	sbrs	r24, 1
    11e4:	14 c0       	rjmp	.+40     	; 0x120e <main+0x88>
    11e6:	d0 93 05 06 	sts	0x0605, r29
    11ea:	80 91 68 06 	lds	r24, 0x0668
    11ee:	84 ff       	sbrs	r24, 4
    11f0:	14 c0       	rjmp	.+40     	; 0x121a <main+0x94>
    11f2:	c0 93 05 06 	sts	0x0605, r28
    11f6:	cf d9       	rcall	.-3170   	; 0x596 <toggleChargePump>
    11f8:	80 91 68 06 	lds	r24, 0x0668
    11fc:	85 ff       	sbrs	r24, 5
    11fe:	ec cf       	rjmp	.-40     	; 0x11d8 <main+0x52>
    1200:	10 93 26 06 	sts	0x0626, r17
    1204:	c8 d9       	rcall	.-3184   	; 0x596 <toggleChargePump>
    1206:	80 91 68 06 	lds	r24, 0x0668
    120a:	81 fd       	sbrc	r24, 1
    120c:	ec cf       	rjmp	.-40     	; 0x11e6 <main+0x60>
    120e:	d0 93 06 06 	sts	0x0606, r29
    1212:	80 91 68 06 	lds	r24, 0x0668
    1216:	84 fd       	sbrc	r24, 4
    1218:	ec cf       	rjmp	.-40     	; 0x11f2 <main+0x6c>
    121a:	c0 93 06 06 	sts	0x0606, r28
    121e:	eb cf       	rjmp	.-42     	; 0x11f6 <main+0x70>

00001220 <memset>:
    1220:	dc 01       	movw	r26, r24
    1222:	01 c0       	rjmp	.+2      	; 0x1226 <memset+0x6>
    1224:	6d 93       	st	X+, r22
    1226:	41 50       	subi	r20, 0x01	; 1
    1228:	50 40       	sbci	r21, 0x00	; 0
    122a:	e0 f7       	brcc	.-8      	; 0x1224 <memset+0x4>
    122c:	08 95       	ret

0000122e <_exit>:
    122e:	f8 94       	cli

00001230 <__stop_program>:
    1230:	ff cf       	rjmp	.-2      	; 0x1230 <__stop_program>
